
AVRASM ver. 2.1.30  C:\Users\Melika\Desktop\japon\List\elina.asm Sun Jun 25 11:39:04 2017

C:\Users\Melika\Desktop\japon\List\elina.asm(1051): warning: Register r4 already defined by the .DEF directive
C:\Users\Melika\Desktop\japon\List\elina.asm(1052): warning: Register r6 already defined by the .DEF directive
C:\Users\Melika\Desktop\japon\List\elina.asm(1053): warning: Register r8 already defined by the .DEF directive
C:\Users\Melika\Desktop\japon\List\elina.asm(1054): warning: Register r10 already defined by the .DEF directive
C:\Users\Melika\Desktop\japon\List\elina.asm(1055): warning: Register r12 already defined by the .DEF directive
                 
                 
                 ;CodeVisionAVR C Compiler V2.04.4a Advanced
                 ;(C) Copyright 1998-2009 Pavel Haiduc, HP InfoTech s.r.l.
                 ;http://www.hpinfotech.com
                 
                 ;Chip type                : ATmega16
                 ;Program type             : Application
                 ;Clock frequency          : 1.000000 MHz
                 ;Memory model             : Small
                 ;Optimize for             : Size
                 ;(s)printf features       : int, width
                 ;(s)scanf features        : int, width
                 ;External RAM size        : 0
                 ;Data Stack size          : 256 byte(s)
                 ;Heap size                : 0 byte(s)
                 ;Promote 'char' to 'int'  : Yes
                 ;'char' is unsigned       : Yes
                 ;8 bit enums              : Yes
                 ;global 'const' stored in FLASH: No
                 ;Enhanced core instructions    : On
                 ;Smart register allocation     : On
                 ;Automatic register allocation : On
                 
                 	#pragma AVRPART ADMIN PART_NAME ATmega16
                 	#pragma AVRPART MEMORY PROG_FLASH 16384
                 	#pragma AVRPART MEMORY EEPROM 512
                 	#pragma AVRPART MEMORY INT_SRAM SIZE 1024
                 	#pragma AVRPART MEMORY INT_SRAM START_ADDR 0x60
                 
                 	.LISTMAC
                 	.EQU UDRE=0x5
                 	.EQU RXC=0x7
                 	.EQU USR=0xB
                 	.EQU UDR=0xC
                 	.EQU SPSR=0xE
                 	.EQU SPDR=0xF
                 	.EQU EERE=0x0
                 	.EQU EEWE=0x1
                 	.EQU EEMWE=0x2
                 	.EQU EECR=0x1C
                 	.EQU EEDR=0x1D
                 	.EQU EEARL=0x1E
                 	.EQU EEARH=0x1F
                 	.EQU WDTCR=0x21
                 	.EQU MCUCR=0x35
                 	.EQU GICR=0x3B
                 	.EQU SPL=0x3D
                 	.EQU SPH=0x3E
                 	.EQU SREG=0x3F
                 
                 	.DEF R0X0=R0
                 	.DEF R0X1=R1
                 	.DEF R0X2=R2
                 	.DEF R0X3=R3
                 	.DEF R0X4=R4
                 	.DEF R0X5=R5
                 	.DEF R0X6=R6
                 	.DEF R0X7=R7
                 	.DEF R0X8=R8
                 	.DEF R0X9=R9
                 	.DEF R0XA=R10
                 	.DEF R0XB=R11
                 	.DEF R0XC=R12
                 	.DEF R0XD=R13
                 	.DEF R0XE=R14
                 	.DEF R0XF=R15
                 	.DEF R0X10=R16
                 	.DEF R0X11=R17
                 	.DEF R0X12=R18
                 	.DEF R0X13=R19
                 	.DEF R0X14=R20
                 	.DEF R0X15=R21
                 	.DEF R0X16=R22
                 	.DEF R0X17=R23
                 	.DEF R0X18=R24
                 	.DEF R0X19=R25
                 	.DEF R0X1A=R26
                 	.DEF R0X1B=R27
                 	.DEF R0X1C=R28
                 	.DEF R0X1D=R29
                 	.DEF R0X1E=R30
                 	.DEF R0X1F=R31
                 
                 	.MACRO __CPD1N
                 	CPI  R30,LOW(@0)
                 	LDI  R26,HIGH(@0)
                 	CPC  R31,R26
                 	LDI  R26,BYTE3(@0)
                 	CPC  R22,R26
                 	LDI  R26,BYTE4(@0)
                 	CPC  R23,R26
                 	.ENDM
                 
                 	.MACRO __CPD2N
                 	CPI  R26,LOW(@0)
                 	LDI  R30,HIGH(@0)
                 	CPC  R27,R30
                 	LDI  R30,BYTE3(@0)
                 	CPC  R24,R30
                 	LDI  R30,BYTE4(@0)
                 	CPC  R25,R30
                 	.ENDM
                 
                 	.MACRO __CPWRR
                 	CP   R@0,R@2
                 	CPC  R@1,R@3
                 	.ENDM
                 
                 	.MACRO __CPWRN
                 	CPI  R@0,LOW(@2)
                 	LDI  R30,HIGH(@2)
                 	CPC  R@1,R30
                 	.ENDM
                 
                 	.MACRO __ADDB1MN
                 	SUBI R30,LOW(-@0-(@1))
                 	.ENDM
                 
                 	.MACRO __ADDB2MN
                 	SUBI R26,LOW(-@0-(@1))
                 	.ENDM
                 
                 	.MACRO __ADDW1MN
                 	SUBI R30,LOW(-@0-(@1))
                 	SBCI R31,HIGH(-@0-(@1))
                 	.ENDM
                 
                 	.MACRO __ADDW2MN
                 	SUBI R26,LOW(-@0-(@1))
                 	SBCI R27,HIGH(-@0-(@1))
                 	.ENDM
                 
                 	.MACRO __ADDW1FN
                 	SUBI R30,LOW(-2*@0-(@1))
                 	SBCI R31,HIGH(-2*@0-(@1))
                 	.ENDM
                 
                 	.MACRO __ADDD1FN
                 	SUBI R30,LOW(-2*@0-(@1))
                 	SBCI R31,HIGH(-2*@0-(@1))
                 	SBCI R22,BYTE3(-2*@0-(@1))
                 	.ENDM
                 
                 	.MACRO __ADDD1N
                 	SUBI R30,LOW(-@0)
                 	SBCI R31,HIGH(-@0)
                 	SBCI R22,BYTE3(-@0)
                 	SBCI R23,BYTE4(-@0)
                 	.ENDM
                 
                 	.MACRO __ADDD2N
                 	SUBI R26,LOW(-@0)
                 	SBCI R27,HIGH(-@0)
                 	SBCI R24,BYTE3(-@0)
                 	SBCI R25,BYTE4(-@0)
                 	.ENDM
                 
                 	.MACRO __SUBD1N
                 	SUBI R30,LOW(@0)
                 	SBCI R31,HIGH(@0)
                 	SBCI R22,BYTE3(@0)
                 	SBCI R23,BYTE4(@0)
                 	.ENDM
                 
                 	.MACRO __SUBD2N
                 	SUBI R26,LOW(@0)
                 	SBCI R27,HIGH(@0)
                 	SBCI R24,BYTE3(@0)
                 	SBCI R25,BYTE4(@0)
                 	.ENDM
                 
                 	.MACRO __ANDBMNN
                 	LDS  R30,@0+(@1)
                 	ANDI R30,LOW(@2)
                 	STS  @0+(@1),R30
                 	.ENDM
                 
                 	.MACRO __ANDWMNN
                 	LDS  R30,@0+(@1)
                 	ANDI R30,LOW(@2)
                 	STS  @0+(@1),R30
                 	LDS  R30,@0+(@1)+1
                 	ANDI R30,HIGH(@2)
                 	STS  @0+(@1)+1,R30
                 	.ENDM
                 
                 	.MACRO __ANDD1N
                 	ANDI R30,LOW(@0)
                 	ANDI R31,HIGH(@0)
                 	ANDI R22,BYTE3(@0)
                 	ANDI R23,BYTE4(@0)
                 	.ENDM
                 
                 	.MACRO __ANDD2N
                 	ANDI R26,LOW(@0)
                 	ANDI R27,HIGH(@0)
                 	ANDI R24,BYTE3(@0)
                 	ANDI R25,BYTE4(@0)
                 	.ENDM
                 
                 	.MACRO __ORBMNN
                 	LDS  R30,@0+(@1)
                 	ORI  R30,LOW(@2)
                 	STS  @0+(@1),R30
                 	.ENDM
                 
                 	.MACRO __ORWMNN
                 	LDS  R30,@0+(@1)
                 	ORI  R30,LOW(@2)
                 	STS  @0+(@1),R30
                 	LDS  R30,@0+(@1)+1
                 	ORI  R30,HIGH(@2)
                 	STS  @0+(@1)+1,R30
                 	.ENDM
                 
                 	.MACRO __ORD1N
                 	ORI  R30,LOW(@0)
                 	ORI  R31,HIGH(@0)
                 	ORI  R22,BYTE3(@0)
                 	ORI  R23,BYTE4(@0)
                 	.ENDM
                 
                 	.MACRO __ORD2N
                 	ORI  R26,LOW(@0)
                 	ORI  R27,HIGH(@0)
                 	ORI  R24,BYTE3(@0)
                 	ORI  R25,BYTE4(@0)
                 	.ENDM
                 
                 	.MACRO __DELAY_USB
                 	LDI  R24,LOW(@0)
                 __DELAY_USB_LOOP:
                 	DEC  R24
                 	BRNE __DELAY_USB_LOOP
                 	.ENDM
                 
                 	.MACRO __DELAY_USW
                 	LDI  R24,LOW(@0)
                 	LDI  R25,HIGH(@0)
                 __DELAY_USW_LOOP:
                 	SBIW R24,1
                 	BRNE __DELAY_USW_LOOP
                 	.ENDM
                 
                 	.MACRO __GETD1S
                 	LDD  R30,Y+@0
                 	LDD  R31,Y+@0+1
                 	LDD  R22,Y+@0+2
                 	LDD  R23,Y+@0+3
                 	.ENDM
                 
                 	.MACRO __GETD2S
                 	LDD  R26,Y+@0
                 	LDD  R27,Y+@0+1
                 	LDD  R24,Y+@0+2
                 	LDD  R25,Y+@0+3
                 	.ENDM
                 
                 	.MACRO __PUTD1S
                 	STD  Y+@0,R30
                 	STD  Y+@0+1,R31
                 	STD  Y+@0+2,R22
                 	STD  Y+@0+3,R23
                 	.ENDM
                 
                 	.MACRO __PUTD2S
                 	STD  Y+@0,R26
                 	STD  Y+@0+1,R27
                 	STD  Y+@0+2,R24
                 	STD  Y+@0+3,R25
                 	.ENDM
                 
                 	.MACRO __PUTDZ2
                 	STD  Z+@0,R26
                 	STD  Z+@0+1,R27
                 	STD  Z+@0+2,R24
                 	STD  Z+@0+3,R25
                 	.ENDM
                 
                 	.MACRO __CLRD1S
                 	STD  Y+@0,R30
                 	STD  Y+@0+1,R30
                 	STD  Y+@0+2,R30
                 	STD  Y+@0+3,R30
                 	.ENDM
                 
                 	.MACRO __POINTB1MN
                 	LDI  R30,LOW(@0+(@1))
                 	.ENDM
                 
                 	.MACRO __POINTW1MN
                 	LDI  R30,LOW(@0+(@1))
                 	LDI  R31,HIGH(@0+(@1))
                 	.ENDM
                 
                 	.MACRO __POINTD1M
                 	LDI  R30,LOW(@0)
                 	LDI  R31,HIGH(@0)
                 	LDI  R22,BYTE3(@0)
                 	LDI  R23,BYTE4(@0)
                 	.ENDM
                 
                 	.MACRO __POINTW1FN
                 	LDI  R30,LOW(2*@0+(@1))
                 	LDI  R31,HIGH(2*@0+(@1))
                 	.ENDM
                 
                 	.MACRO __POINTD1FN
                 	LDI  R30,LOW(2*@0+(@1))
                 	LDI  R31,HIGH(2*@0+(@1))
                 	LDI  R22,BYTE3(2*@0+(@1))
                 	LDI  R23,BYTE4(2*@0+(@1))
                 	.ENDM
                 
                 	.MACRO __POINTB2MN
                 	LDI  R26,LOW(@0+(@1))
                 	.ENDM
                 
                 	.MACRO __POINTW2MN
                 	LDI  R26,LOW(@0+(@1))
                 	LDI  R27,HIGH(@0+(@1))
                 	.ENDM
                 
                 	.MACRO __POINTBRM
                 	LDI  R@0,LOW(@1)
                 	.ENDM
                 
                 	.MACRO __POINTWRM
                 	LDI  R@0,LOW(@2)
                 	LDI  R@1,HIGH(@2)
                 	.ENDM
                 
                 	.MACRO __POINTBRMN
                 	LDI  R@0,LOW(@1+(@2))
                 	.ENDM
                 
                 	.MACRO __POINTWRMN
                 	LDI  R@0,LOW(@2+(@3))
                 	LDI  R@1,HIGH(@2+(@3))
                 	.ENDM
                 
                 	.MACRO __POINTWRFN
                 	LDI  R@0,LOW(@2*2+(@3))
                 	LDI  R@1,HIGH(@2*2+(@3))
                 	.ENDM
                 
                 	.MACRO __GETD1N
                 	LDI  R30,LOW(@0)
                 	LDI  R31,HIGH(@0)
                 	LDI  R22,BYTE3(@0)
                 	LDI  R23,BYTE4(@0)
                 	.ENDM
                 
                 	.MACRO __GETD2N
                 	LDI  R26,LOW(@0)
                 	LDI  R27,HIGH(@0)
                 	LDI  R24,BYTE3(@0)
                 	LDI  R25,BYTE4(@0)
                 	.ENDM
                 
                 	.MACRO __GETB1MN
                 	LDS  R30,@0+(@1)
                 	.ENDM
                 
                 	.MACRO __GETB1HMN
                 	LDS  R31,@0+(@1)
                 	.ENDM
                 
                 	.MACRO __GETW1MN
                 	LDS  R30,@0+(@1)
                 	LDS  R31,@0+(@1)+1
                 	.ENDM
                 
                 	.MACRO __GETD1MN
                 	LDS  R30,@0+(@1)
                 	LDS  R31,@0+(@1)+1
                 	LDS  R22,@0+(@1)+2
                 	LDS  R23,@0+(@1)+3
                 	.ENDM
                 
                 	.MACRO __GETBRMN
                 	LDS  R@0,@1+(@2)
                 	.ENDM
                 
                 	.MACRO __GETWRMN
                 	LDS  R@0,@2+(@3)
                 	LDS  R@1,@2+(@3)+1
                 	.ENDM
                 
                 	.MACRO __GETWRZ
                 	LDD  R@0,Z+@2
                 	LDD  R@1,Z+@2+1
                 	.ENDM
                 
                 	.MACRO __GETD2Z
                 	LDD  R26,Z+@0
                 	LDD  R27,Z+@0+1
                 	LDD  R24,Z+@0+2
                 	LDD  R25,Z+@0+3
                 	.ENDM
                 
                 	.MACRO __GETB2MN
                 	LDS  R26,@0+(@1)
                 	.ENDM
                 
                 	.MACRO __GETW2MN
                 	LDS  R26,@0+(@1)
                 	LDS  R27,@0+(@1)+1
                 	.ENDM
                 
                 	.MACRO __GETD2MN
                 	LDS  R26,@0+(@1)
                 	LDS  R27,@0+(@1)+1
                 	LDS  R24,@0+(@1)+2
                 	LDS  R25,@0+(@1)+3
                 	.ENDM
                 
                 	.MACRO __PUTB1MN
                 	STS  @0+(@1),R30
                 	.ENDM
                 
                 	.MACRO __PUTW1MN
                 	STS  @0+(@1),R30
                 	STS  @0+(@1)+1,R31
                 	.ENDM
                 
                 	.MACRO __PUTD1MN
                 	STS  @0+(@1),R30
                 	STS  @0+(@1)+1,R31
                 	STS  @0+(@1)+2,R22
                 	STS  @0+(@1)+3,R23
                 	.ENDM
                 
                 	.MACRO __PUTB1EN
                 	LDI  R26,LOW(@0+(@1))
                 	LDI  R27,HIGH(@0+(@1))
                 	CALL __EEPROMWRB
                 	.ENDM
                 
                 	.MACRO __PUTW1EN
                 	LDI  R26,LOW(@0+(@1))
                 	LDI  R27,HIGH(@0+(@1))
                 	CALL __EEPROMWRW
                 	.ENDM
                 
                 	.MACRO __PUTD1EN
                 	LDI  R26,LOW(@0+(@1))
                 	LDI  R27,HIGH(@0+(@1))
                 	CALL __EEPROMWRD
                 	.ENDM
                 
                 	.MACRO __PUTBR0MN
                 	STS  @0+(@1),R0
                 	.ENDM
                 
                 	.MACRO __PUTBMRN
                 	STS  @0+(@1),R@2
                 	.ENDM
                 
                 	.MACRO __PUTWMRN
                 	STS  @0+(@1),R@2
                 	STS  @0+(@1)+1,R@3
                 	.ENDM
                 
                 	.MACRO __PUTBZR
                 	STD  Z+@1,R@0
                 	.ENDM
                 
                 	.MACRO __PUTWZR
                 	STD  Z+@2,R@0
                 	STD  Z+@2+1,R@1
                 	.ENDM
                 
                 	.MACRO __GETW1R
                 	MOV  R30,R@0
                 	MOV  R31,R@1
                 	.ENDM
                 
                 	.MACRO __GETW2R
                 	MOV  R26,R@0
                 	MOV  R27,R@1
                 	.ENDM
                 
                 	.MACRO __GETWRN
                 	LDI  R@0,LOW(@2)
                 	LDI  R@1,HIGH(@2)
                 	.ENDM
                 
                 	.MACRO __PUTW1R
                 	MOV  R@0,R30
                 	MOV  R@1,R31
                 	.ENDM
                 
                 	.MACRO __PUTW2R
                 	MOV  R@0,R26
                 	MOV  R@1,R27
                 	.ENDM
                 
                 	.MACRO __ADDWRN
                 	SUBI R@0,LOW(-@2)
                 	SBCI R@1,HIGH(-@2)
                 	.ENDM
                 
                 	.MACRO __ADDWRR
                 	ADD  R@0,R@2
                 	ADC  R@1,R@3
                 	.ENDM
                 
                 	.MACRO __SUBWRN
                 	SUBI R@0,LOW(@2)
                 	SBCI R@1,HIGH(@2)
                 	.ENDM
                 
                 	.MACRO __SUBWRR
                 	SUB  R@0,R@2
                 	SBC  R@1,R@3
                 	.ENDM
                 
                 	.MACRO __ANDWRN
                 	ANDI R@0,LOW(@2)
                 	ANDI R@1,HIGH(@2)
                 	.ENDM
                 
                 	.MACRO __ANDWRR
                 	AND  R@0,R@2
                 	AND  R@1,R@3
                 	.ENDM
                 
                 	.MACRO __ORWRN
                 	ORI  R@0,LOW(@2)
                 	ORI  R@1,HIGH(@2)
                 	.ENDM
                 
                 	.MACRO __ORWRR
                 	OR   R@0,R@2
                 	OR   R@1,R@3
                 	.ENDM
                 
                 	.MACRO __EORWRR
                 	EOR  R@0,R@2
                 	EOR  R@1,R@3
                 	.ENDM
                 
                 	.MACRO __GETWRS
                 	LDD  R@0,Y+@2
                 	LDD  R@1,Y+@2+1
                 	.ENDM
                 
                 	.MACRO __PUTBSR
                 	STD  Y+@1,R@0
                 	.ENDM
                 
                 	.MACRO __PUTWSR
                 	STD  Y+@2,R@0
                 	STD  Y+@2+1,R@1
                 	.ENDM
                 
                 	.MACRO __MOVEWRR
                 	MOV  R@0,R@2
                 	MOV  R@1,R@3
                 	.ENDM
                 
                 	.MACRO __INWR
                 	IN   R@0,@2
                 	IN   R@1,@2+1
                 	.ENDM
                 
                 	.MACRO __OUTWR
                 	OUT  @2+1,R@1
                 	OUT  @2,R@0
                 	.ENDM
                 
                 	.MACRO __CALL1MN
                 	LDS  R30,@0+(@1)
                 	LDS  R31,@0+(@1)+1
                 	ICALL
                 	.ENDM
                 
                 	.MACRO __CALL1FN
                 	LDI  R30,LOW(2*@0+(@1))
                 	LDI  R31,HIGH(2*@0+(@1))
                 	CALL __GETW1PF
                 	ICALL
                 	.ENDM
                 
                 	.MACRO __CALL2EN
                 	LDI  R26,LOW(@0+(@1))
                 	LDI  R27,HIGH(@0+(@1))
                 	CALL __EEPROMRDW
                 	ICALL
                 	.ENDM
                 
                 	.MACRO __GETW1STACK
                 	IN   R26,SPL
                 	IN   R27,SPH
                 	ADIW R26,@0+1
                 	LD   R30,X+
                 	LD   R31,X
                 	.ENDM
                 
                 	.MACRO __GETD1STACK
                 	IN   R26,SPL
                 	IN   R27,SPH
                 	ADIW R26,@0+1
                 	LD   R30,X+
                 	LD   R31,X+
                 	LD   R22,X
                 	.ENDM
                 
                 	.MACRO __NBST
                 	BST  R@0,@1
                 	IN   R30,SREG
                 	LDI  R31,0x40
                 	EOR  R30,R31
                 	OUT  SREG,R30
                 	.ENDM
                 
                 
                 	.MACRO __PUTB1SN
                 	LDD  R26,Y+@0
                 	LDD  R27,Y+@0+1
                 	SUBI R26,LOW(-@1)
                 	SBCI R27,HIGH(-@1)
                 	ST   X,R30
                 	.ENDM
                 
                 	.MACRO __PUTW1SN
                 	LDD  R26,Y+@0
                 	LDD  R27,Y+@0+1
                 	SUBI R26,LOW(-@1)
                 	SBCI R27,HIGH(-@1)
                 	ST   X+,R30
                 	ST   X,R31
                 	.ENDM
                 
                 	.MACRO __PUTD1SN
                 	LDD  R26,Y+@0
                 	LDD  R27,Y+@0+1
                 	SUBI R26,LOW(-@1)
                 	SBCI R27,HIGH(-@1)
                 	CALL __PUTDP1
                 	.ENDM
                 
                 	.MACRO __PUTB1SNS
                 	LDD  R26,Y+@0
                 	LDD  R27,Y+@0+1
                 	ADIW R26,@1
                 	ST   X,R30
                 	.ENDM
                 
                 	.MACRO __PUTW1SNS
                 	LDD  R26,Y+@0
                 	LDD  R27,Y+@0+1
                 	ADIW R26,@1
                 	ST   X+,R30
                 	ST   X,R31
                 	.ENDM
                 
                 	.MACRO __PUTD1SNS
                 	LDD  R26,Y+@0
                 	LDD  R27,Y+@0+1
                 	ADIW R26,@1
                 	CALL __PUTDP1
                 	.ENDM
                 
                 	.MACRO __PUTB1PMN
                 	LDS  R26,@0
                 	LDS  R27,@0+1
                 	SUBI R26,LOW(-@1)
                 	SBCI R27,HIGH(-@1)
                 	ST   X,R30
                 	.ENDM
                 
                 	.MACRO __PUTW1PMN
                 	LDS  R26,@0
                 	LDS  R27,@0+1
                 	SUBI R26,LOW(-@1)
                 	SBCI R27,HIGH(-@1)
                 	ST   X+,R30
                 	ST   X,R31
                 	.ENDM
                 
                 	.MACRO __PUTD1PMN
                 	LDS  R26,@0
                 	LDS  R27,@0+1
                 	SUBI R26,LOW(-@1)
                 	SBCI R27,HIGH(-@1)
                 	CALL __PUTDP1
                 	.ENDM
                 
                 	.MACRO __PUTB1PMNS
                 	LDS  R26,@0
                 	LDS  R27,@0+1
                 	ADIW R26,@1
                 	ST   X,R30
                 	.ENDM
                 
                 	.MACRO __PUTW1PMNS
                 	LDS  R26,@0
                 	LDS  R27,@0+1
                 	ADIW R26,@1
                 	ST   X+,R30
                 	ST   X,R31
                 	.ENDM
                 
                 	.MACRO __PUTD1PMNS
                 	LDS  R26,@0
                 	LDS  R27,@0+1
                 	ADIW R26,@1
                 	CALL __PUTDP1
                 	.ENDM
                 
                 	.MACRO __PUTB1RN
                 	MOVW R26,R@0
                 	SUBI R26,LOW(-@1)
                 	SBCI R27,HIGH(-@1)
                 	ST   X,R30
                 	.ENDM
                 
                 	.MACRO __PUTW1RN
                 	MOVW R26,R@0
                 	SUBI R26,LOW(-@1)
                 	SBCI R27,HIGH(-@1)
                 	ST   X+,R30
                 	ST   X,R31
                 	.ENDM
                 
                 	.MACRO __PUTD1RN
                 	MOVW R26,R@0
                 	SUBI R26,LOW(-@1)
                 	SBCI R27,HIGH(-@1)
                 	CALL __PUTDP1
                 	.ENDM
                 
                 	.MACRO __PUTB1RNS
                 	MOVW R26,R@0
                 	ADIW R26,@1
                 	ST   X,R30
                 	.ENDM
                 
                 	.MACRO __PUTW1RNS
                 	MOVW R26,R@0
                 	ADIW R26,@1
                 	ST   X+,R30
                 	ST   X,R31
                 	.ENDM
                 
                 	.MACRO __PUTD1RNS
                 	MOVW R26,R@0
                 	ADIW R26,@1
                 	CALL __PUTDP1
                 	.ENDM
                 
                 	.MACRO __PUTB1RON
                 	MOV  R26,R@0
                 	MOV  R27,R@1
                 	SUBI R26,LOW(-@2)
                 	SBCI R27,HIGH(-@2)
                 	ST   X,R30
                 	.ENDM
                 
                 	.MACRO __PUTW1RON
                 	MOV  R26,R@0
                 	MOV  R27,R@1
                 	SUBI R26,LOW(-@2)
                 	SBCI R27,HIGH(-@2)
                 	ST   X+,R30
                 	ST   X,R31
                 	.ENDM
                 
                 	.MACRO __PUTD1RON
                 	MOV  R26,R@0
                 	MOV  R27,R@1
                 	SUBI R26,LOW(-@2)
                 	SBCI R27,HIGH(-@2)
                 	CALL __PUTDP1
                 	.ENDM
                 
                 	.MACRO __PUTB1RONS
                 	MOV  R26,R@0
                 	MOV  R27,R@1
                 	ADIW R26,@2
                 	ST   X,R30
                 	.ENDM
                 
                 	.MACRO __PUTW1RONS
                 	MOV  R26,R@0
                 	MOV  R27,R@1
                 	ADIW R26,@2
                 	ST   X+,R30
                 	ST   X,R31
                 	.ENDM
                 
                 	.MACRO __PUTD1RONS
                 	MOV  R26,R@0
                 	MOV  R27,R@1
                 	ADIW R26,@2
                 	CALL __PUTDP1
                 	.ENDM
                 
                 
                 	.MACRO __GETB1SX
                 	MOVW R30,R28
                 	SUBI R30,LOW(-@0)
                 	SBCI R31,HIGH(-@0)
                 	LD   R30,Z
                 	.ENDM
                 
                 	.MACRO __GETB1HSX
                 	MOVW R30,R28
                 	SUBI R30,LOW(-@0)
                 	SBCI R31,HIGH(-@0)
                 	LD   R31,Z
                 	.ENDM
                 
                 	.MACRO __GETW1SX
                 	MOVW R30,R28
                 	SUBI R30,LOW(-@0)
                 	SBCI R31,HIGH(-@0)
                 	LD   R0,Z+
                 	LD   R31,Z
                 	MOV  R30,R0
                 	.ENDM
                 
                 	.MACRO __GETD1SX
                 	MOVW R30,R28
                 	SUBI R30,LOW(-@0)
                 	SBCI R31,HIGH(-@0)
                 	LD   R0,Z+
                 	LD   R1,Z+
                 	LD   R22,Z+
                 	LD   R23,Z
                 	MOVW R30,R0
                 	.ENDM
                 
                 	.MACRO __GETB2SX
                 	MOVW R26,R28
                 	SUBI R26,LOW(-@0)
                 	SBCI R27,HIGH(-@0)
                 	LD   R26,X
                 	.ENDM
                 
                 	.MACRO __GETW2SX
                 	MOVW R26,R28
                 	SUBI R26,LOW(-@0)
                 	SBCI R27,HIGH(-@0)
                 	LD   R0,X+
                 	LD   R27,X
                 	MOV  R26,R0
                 	.ENDM
                 
                 	.MACRO __GETD2SX
                 	MOVW R26,R28
                 	SUBI R26,LOW(-@0)
                 	SBCI R27,HIGH(-@0)
                 	LD   R0,X+
                 	LD   R1,X+
                 	LD   R24,X+
                 	LD   R25,X
                 	MOVW R26,R0
                 	.ENDM
                 
                 	.MACRO __GETBRSX
                 	MOVW R30,R28
                 	SUBI R30,LOW(-@1)
                 	SBCI R31,HIGH(-@1)
                 	LD   R@0,Z
                 	.ENDM
                 
                 	.MACRO __GETWRSX
                 	MOVW R30,R28
                 	SUBI R30,LOW(-@2)
                 	SBCI R31,HIGH(-@2)
                 	LD   R@0,Z+
                 	LD   R@1,Z
                 	.ENDM
                 
                 	.MACRO __GETBRSX2
                 	MOVW R26,R28
                 	SUBI R26,LOW(-@1)
                 	SBCI R27,HIGH(-@1)
                 	LD   R@0,X
                 	.ENDM
                 
                 	.MACRO __GETWRSX2
                 	MOVW R26,R28
                 	SUBI R26,LOW(-@2)
                 	SBCI R27,HIGH(-@2)
                 	LD   R@0,X+
                 	LD   R@1,X
                 	.ENDM
                 
                 	.MACRO __LSLW8SX
                 	MOVW R30,R28
                 	SUBI R30,LOW(-@0)
                 	SBCI R31,HIGH(-@0)
                 	LD   R31,Z
                 	CLR  R30
                 	.ENDM
                 
                 	.MACRO __PUTB1SX
                 	MOVW R26,R28
                 	SUBI R26,LOW(-@0)
                 	SBCI R27,HIGH(-@0)
                 	ST   X,R30
                 	.ENDM
                 
                 	.MACRO __PUTW1SX
                 	MOVW R26,R28
                 	SUBI R26,LOW(-@0)
                 	SBCI R27,HIGH(-@0)
                 	ST   X+,R30
                 	ST   X,R31
                 	.ENDM
                 
                 	.MACRO __PUTD1SX
                 	MOVW R26,R28
                 	SUBI R26,LOW(-@0)
                 	SBCI R27,HIGH(-@0)
                 	ST   X+,R30
                 	ST   X+,R31
                 	ST   X+,R22
                 	ST   X,R23
                 	.ENDM
                 
                 	.MACRO __CLRW1SX
                 	MOVW R26,R28
                 	SUBI R26,LOW(-@0)
                 	SBCI R27,HIGH(-@0)
                 	ST   X+,R30
                 	ST   X,R30
                 	.ENDM
                 
                 	.MACRO __CLRD1SX
                 	MOVW R26,R28
                 	SUBI R26,LOW(-@0)
                 	SBCI R27,HIGH(-@0)
                 	ST   X+,R30
                 	ST   X+,R30
                 	ST   X+,R30
                 	ST   X,R30
                 	.ENDM
                 
                 	.MACRO __PUTB2SX
                 	MOVW R30,R28
                 	SUBI R30,LOW(-@0)
                 	SBCI R31,HIGH(-@0)
                 	ST   Z,R26
                 	.ENDM
                 
                 	.MACRO __PUTW2SX
                 	MOVW R30,R28
                 	SUBI R30,LOW(-@0)
                 	SBCI R31,HIGH(-@0)
                 	ST   Z+,R26
                 	ST   Z,R27
                 	.ENDM
                 
                 	.MACRO __PUTD2SX
                 	MOVW R30,R28
                 	SUBI R30,LOW(-@0)
                 	SBCI R31,HIGH(-@0)
                 	ST   Z+,R26
                 	ST   Z+,R27
                 	ST   Z+,R24
                 	ST   Z,R25
                 	.ENDM
                 
                 	.MACRO __PUTBSRX
                 	MOVW R30,R28
                 	SUBI R30,LOW(-@1)
                 	SBCI R31,HIGH(-@1)
                 	ST   Z,R@0
                 	.ENDM
                 
                 	.MACRO __PUTWSRX
                 	MOVW R30,R28
                 	SUBI R30,LOW(-@2)
                 	SBCI R31,HIGH(-@2)
                 	ST   Z+,R@0
                 	ST   Z,R@1
                 	.ENDM
                 
                 	.MACRO __PUTB1SNX
                 	MOVW R26,R28
                 	SUBI R26,LOW(-@0)
                 	SBCI R27,HIGH(-@0)
                 	LD   R0,X+
                 	LD   R27,X
                 	MOV  R26,R0
                 	SUBI R26,LOW(-@1)
                 	SBCI R27,HIGH(-@1)
                 	ST   X,R30
                 	.ENDM
                 
                 	.MACRO __PUTW1SNX
                 	MOVW R26,R28
                 	SUBI R26,LOW(-@0)
                 	SBCI R27,HIGH(-@0)
                 	LD   R0,X+
                 	LD   R27,X
                 	MOV  R26,R0
                 	SUBI R26,LOW(-@1)
                 	SBCI R27,HIGH(-@1)
                 	ST   X+,R30
                 	ST   X,R31
                 	.ENDM
                 
                 	.MACRO __PUTD1SNX
                 	MOVW R26,R28
                 	SUBI R26,LOW(-@0)
                 	SBCI R27,HIGH(-@0)
                 	LD   R0,X+
                 	LD   R27,X
                 	MOV  R26,R0
                 	SUBI R26,LOW(-@1)
                 	SBCI R27,HIGH(-@1)
                 	ST   X+,R30
                 	ST   X+,R31
                 	ST   X+,R22
                 	ST   X,R23
                 	.ENDM
                 
                 	.MACRO __MULBRR
                 	MULS R@0,R@1
                 	MOVW R30,R0
                 	.ENDM
                 
                 	.MACRO __MULBRRU
                 	MUL  R@0,R@1
                 	MOVW R30,R0
                 	.ENDM
                 
                 	.MACRO __MULBRR0
                 	MULS R@0,R@1
                 	.ENDM
                 
                 	.MACRO __MULBRRU0
                 	MUL  R@0,R@1
                 	.ENDM
                 
                 	.MACRO __MULBNWRU
                 	LDI  R26,@2
                 	MUL  R26,R@0
                 	MOVW R30,R0
                 	MUL  R26,R@1
                 	ADD  R31,R0
                 	.ENDM
                 
                 ;NAME DEFINITIONS FOR GLOBAL VARIABLES ALLOCATED TO REGISTERS
                 	.DEF _cmp=R4
                 	.DEF _B=R6
                 	.DEF _L=R8
                 	.DEF _R=R10
                 	.DEF _e=R12
                 
                 	.CSEG
                 	.ORG 0x00
                 
                 ;INTERRUPT VECTORS
000000 940c 002f 	JMP  __RESET
000002 940c 0000 	JMP  0x00
000004 940c 0000 	JMP  0x00
000006 940c 0000 	JMP  0x00
000008 940c 0000 	JMP  0x00
00000a 940c 0000 	JMP  0x00
00000c 940c 0000 	JMP  0x00
00000e 940c 0000 	JMP  0x00
000010 940c 0000 	JMP  0x00
000012 940c 0000 	JMP  0x00
000014 940c 0000 	JMP  0x00
000016 940c 0000 	JMP  0x00
000018 940c 0000 	JMP  0x00
00001a 940c 0000 	JMP  0x00
00001c 940c 0000 	JMP  0x00
00001e 940c 0000 	JMP  0x00
000020 940c 0000 	JMP  0x00
000022 940c 0000 	JMP  0x00
000024 940c 0000 	JMP  0x00
000026 940c 0000 	JMP  0x00
000028 940c 0000 	JMP  0x00
                 
                 _0x2000003:
00002a c080      	.DB  0x80,0xC0
                 
                 __GLOBAL_INI_TBL:
00002b 0002      	.DW  0x02
00002c 018e      	.DW  __base_y_G100
00002d 0054      	.DW  _0x2000003*2
                 
                 _0xFFFFFFFF:
00002e 0000      	.DW  0
                 
                 __RESET:
00002f 94f8      	CLI
000030 27ee      	CLR  R30
000031 bbec      	OUT  EECR,R30
                 
                 ;INTERRUPT VECTORS ARE PLACED
                 ;AT THE START OF FLASH
000032 e0f1      	LDI  R31,1
000033 bffb      	OUT  GICR,R31
000034 bfeb      	OUT  GICR,R30
000035 bfe5      	OUT  MCUCR,R30
                 
                 ;DISABLE WATCHDOG
000036 e1f8      	LDI  R31,0x18
000037 bdf1      	OUT  WDTCR,R31
000038 bde1      	OUT  WDTCR,R30
                 
                 ;CLEAR R2-R14
000039 e08d      	LDI  R24,(14-2)+1
00003a e0a2      	LDI  R26,2
00003b 27bb      	CLR  R27
                 __CLEAR_REG:
00003c 93ed      	ST   X+,R30
00003d 958a      	DEC  R24
00003e f7e9      	BRNE __CLEAR_REG
                 
                 ;CLEAR SRAM
00003f e080      	LDI  R24,LOW(0x400)
000040 e094      	LDI  R25,HIGH(0x400)
000041 e6a0      	LDI  R26,0x60
                 __CLEAR_SRAM:
000042 93ed      	ST   X+,R30
000043 9701      	SBIW R24,1
000044 f7e9      	BRNE __CLEAR_SRAM
                 
                 ;GLOBAL VARIABLES INITIALIZATION
000045 e5e6      	LDI  R30,LOW(__GLOBAL_INI_TBL*2)
000046 e0f0      	LDI  R31,HIGH(__GLOBAL_INI_TBL*2)
                 __GLOBAL_INI_NEXT:
000047 9185      	LPM  R24,Z+
000048 9195      	LPM  R25,Z+
000049 9700      	SBIW R24,0
00004a f061      	BREQ __GLOBAL_INI_END
00004b 91a5      	LPM  R26,Z+
00004c 91b5      	LPM  R27,Z+
00004d 9005      	LPM  R0,Z+
00004e 9015      	LPM  R1,Z+
00004f 01bf      	MOVW R22,R30
000050 01f0      	MOVW R30,R0
                 __GLOBAL_INI_LOOP:
000051 9005      	LPM  R0,Z+
000052 920d      	ST   X+,R0
000053 9701      	SBIW R24,1
000054 f7e1      	BRNE __GLOBAL_INI_LOOP
000055 01fb      	MOVW R30,R22
000056 cff0      	RJMP __GLOBAL_INI_NEXT
                 __GLOBAL_INI_END:
                 
                 ;STACK POINTER INITIALIZATION
000057 e5ef      	LDI  R30,LOW(0x45F)
000058 bfed      	OUT  SPL,R30
000059 e0e4      	LDI  R30,HIGH(0x45F)
00005a bfee      	OUT  SPH,R30
                 
                 ;DATA STACK POINTER INITIALIZATION
00005b e6c0      	LDI  R28,LOW(0x160)
00005c e0d1      	LDI  R29,HIGH(0x160)
                 
00005d 940c 0252 	JMP  _main
                 
                 	.ESEG
                 	.ORG 0
                 
                 	.DSEG
                 	.ORG 0x160
                 
                 	.CSEG
                 ;/*****************************************************
                 ;This program was produced by the
                 ;CodeWizardAVR V2.04.4a Advanced
                 ;Automatic Program Generator
                 ;© Copyright 1998-2009 Pavel Haiduc, HP InfoTech s.r.l.
                 ;http://www.hpinfotech.com
                 ;
                 ;Project :
                 ;Version :
                 ;Date    : 06/25/2017
                 ;Author  : NeVaDa
                 ;Company :
                 ;Comments:
                 ;
                 ;
                 ;Chip type               : ATmega16
                 ;Program type            : Application
                 ;AVR Core Clock frequency: 1.000000 MHz
                 ;Memory model            : Small
                 ;External RAM size       : 0
                 ;Data Stack size         : 256
                 ;*****************************************************/
                 ;
                 ;#include <mega16.h>
                 	#ifndef __SLEEP_DEFINED__
                 	#define __SLEEP_DEFINED__
                 	.EQU __se_bit=0x40
                 	.EQU __sm_mask=0xB0
                 	.EQU __sm_powerdown=0x20
                 	.EQU __sm_powersave=0x30
                 	.EQU __sm_standby=0xA0
                 	.EQU __sm_ext_standby=0xB0
                 	.EQU __sm_adc_noise_red=0x10
                 	.SET power_ctrl_reg=mcucr
                 	#endif
                 ;
                 ;#include <delay.h>
                 ;
                 ;// I2C Bus functions
                 ;#asm
                    .equ __i2c_port=0x18 ;PORTB
                    .equ __sda_bit=0
                    .equ __scl_bit=1
                 ; 0000 0021 #endasm
                 ;#include <i2c.h>
                 ;
                 ;// Alphanumeric LCD Module functions
                 ;#asm
                    .equ __lcd_port=0x15 ;PORTC
                 ; 0000 0027 #endasm
                 ;#include <lcd.h>
                 ;
                 ;#define ADC_VREF_TYPE 0x40
                 ;                 ///////////////////////////cmp
                 ;eeprom int c;
                 ;int cmp;
                 ;
                 ;#define
                 ; EEPROM_BUS_ADDRESS 0xc0
                 ;unsigned char compass_read(unsigned char address) {
                 ; 0000 0031 unsigned char compass_read(unsigned char address) {
                 
                 	.CSEG
                 _compass_read:
                 ; 0000 0032 unsigned char data;
                 ; 0000 0033 i2c_start();
00005f 931a      	ST   -Y,R17
                 ;	address -> Y+1
                 ;	data -> R17
000060 940e 05c2 	CALL _i2c_start
                 ; 0000 0034 i2c_write(EEPROM_BUS_ADDRESS);
000062 ece0      	LDI  R30,LOW(192)
000063 93ea      	ST   -Y,R30
000064 940e 05f6 	CALL _i2c_write
                 ; 0000 0035 i2c_write(address);
000066 81e9      	LDD  R30,Y+1
000067 93ea      	ST   -Y,R30
000068 940e 05f6 	CALL _i2c_write
                 ; 0000 0036 i2c_start();
00006a 940e 05c2 	CALL _i2c_start
                 ; 0000 0037 i2c_write(EEPROM_BUS_ADDRESS |1);
00006c ece1      	LDI  R30,LOW(193)
00006d 93ea      	ST   -Y,R30
00006e 940e 05f6 	CALL _i2c_write
                 ; 0000 0038 data=i2c_read(0);
000070 e0e0      	LDI  R30,LOW(0)
000071 93ea      	ST   -Y,R30
000072 940e 05db 	CALL _i2c_read
000074 2f1e      	MOV  R17,R30
                 ; 0000 0039 i2c_stop();
000075 940e 05d1 	CALL _i2c_stop
                 ; 0000 003A return data;
000077 2fe1      	MOV  R30,R17
000078 8118      	LDD  R17,Y+0
000079 940c 0491 	JMP  _0x2020002
                 ; 0000 003B }
                 ;//////////////////////////////////
                 ;// Read the AD conversion result
                 ;unsigned int read_adc(unsigned char adc_input)
                 ; 0000 003F {
                 _read_adc:
                 ; 0000 0040 ADMUX=adc_input | (ADC_VREF_TYPE & 0xff);
                 ;	adc_input -> Y+0
00007b 81e8      	LD   R30,Y
00007c 64e0      	ORI  R30,0x40
00007d b9e7      	OUT  0x7,R30
                 ; 0000 0041 // Delay needed for the stabilization of the ADC input voltage
                 ; 0000 0042 delay_us(10);
                +
00007e e083     +LDI R24 , LOW ( 3 )
                +__DELAY_USB_LOOP :
00007f 958a     +DEC R24
000080 f7f1     +BRNE __DELAY_USB_LOOP
                 	__DELAY_USB 3
                 ; 0000 0043 // Start the AD conversion
                 ; 0000 0044 ADCSRA|=0x40;
000081 9a36      	SBI  0x6,6
                 ; 0000 0045 // Wait for the AD conversion to complete
                 ; 0000 0046 while ((ADCSRA & 0x10)==0);
                 _0x3:
000082 9b34      	SBIS 0x6,4
000083 cffe      	RJMP _0x3
                 ; 0000 0047 ADCSRA|=0x10;
000084 9a34      	SBI  0x6,4
                 ; 0000 0048 return ADCW;
000085 b1e4      	IN   R30,0x4
000086 b1f5      	IN   R31,0x4+1
000087 940c 050f 	JMP  _0x2020001
                 ; 0000 0049 }
                 ;
                 ;// Declare your global variables here
                 ;     int B,L,R;
                 ; int e;
                 ; int kr,kl,kb,kf;
                 ; int f;
                 ;//////////////////////////////////////////////////////////
                 ;///////////////////////////////////////////////////////////sensor read
                 ; int adc[16],adc_min;
                 ; int i=0;
                 ;void read_sensor()
                 ; 0000 0055 {
                 _read_sensor:
                 ; 0000 0056    #asm ("wdr");
000089 95a8      	wdr
                 ; 0000 0057 
                 ; 0000 0058 
                 ; 0000 0059 for(i=0;i<16;i++)
00008a e0e0      	LDI  R30,LOW(0)
00008b 93e0 018c 	STS  _i,R30
00008d 93e0 018d 	STS  _i+1,R30
                 _0x7:
00008f 940e 0511 	CALL SUBOPT_0x0
000091 9750      	SBIW R26,16
000092 f014      	BRLT PC+3
000093 940c 00e5 	JMP _0x8
                 ; 0000 005A {
                 ; 0000 005B 
                 ; 0000 005C 
                 ; 0000 005D PORTB.4=(i/1)%2;
000095 940e 0511 	CALL SUBOPT_0x0
000097 940e 0516 	CALL SUBOPT_0x1
000099 f411      	BRNE _0x9
00009a 98c4      	CBI  0x18,4
00009b c001      	RJMP _0xA
                 _0x9:
00009c 9ac4      	SBI  0x18,4
                 _0xA:
                 ; 0000 005E PORTB.5=(i/2)%2;
00009d 940e 0511 	CALL SUBOPT_0x0
00009f e0e2      	LDI  R30,LOW(2)
0000a0 e0f0      	LDI  R31,HIGH(2)
0000a1 940e 051c 	CALL SUBOPT_0x2
0000a3 f411      	BRNE _0xB
0000a4 98c5      	CBI  0x18,5
0000a5 c001      	RJMP _0xC
                 _0xB:
0000a6 9ac5      	SBI  0x18,5
                 _0xC:
                 ; 0000 005F PORTB.6=(i/4)%2;
0000a7 940e 0511 	CALL SUBOPT_0x0
0000a9 e0e4      	LDI  R30,LOW(4)
0000aa e0f0      	LDI  R31,HIGH(4)
0000ab 940e 051c 	CALL SUBOPT_0x2
0000ad f411      	BRNE _0xD
0000ae 98c6      	CBI  0x18,6
0000af c001      	RJMP _0xE
                 _0xD:
0000b0 9ac6      	SBI  0x18,6
                 _0xE:
                 ; 0000 0060 PORTB.7=(i/8)%2;
0000b1 940e 0511 	CALL SUBOPT_0x0
0000b3 e0e8      	LDI  R30,LOW(8)
0000b4 e0f0      	LDI  R31,HIGH(8)
0000b5 940e 051c 	CALL SUBOPT_0x2
0000b7 f411      	BRNE _0xF
0000b8 98c7      	CBI  0x18,7
0000b9 c001      	RJMP _0x10
                 _0xF:
0000ba 9ac7      	SBI  0x18,7
                 _0x10:
                 ; 0000 0061 
                 ; 0000 0062 
                 ; 0000 0063 adc[i]=read_adc(0);
0000bb 940e 0520 	CALL SUBOPT_0x3
0000bd 0fea      	ADD  R30,R26
0000be 1ffb      	ADC  R31,R27
0000bf 93ff      	PUSH R31
0000c0 93ef      	PUSH R30
0000c1 e0e0      	LDI  R30,LOW(0)
0000c2 93ea      	ST   -Y,R30
0000c3 dfb7      	RCALL _read_adc
0000c4 91af      	POP  R26
0000c5 91bf      	POP  R27
0000c6 93ed      	ST   X+,R30
0000c7 93fc      	ST   X,R31
                 ; 0000 0064 
                 ; 0000 0065 if(adc[adc_min]>adc[i])
0000c8 940e 0529 	CALL SUBOPT_0x4
0000ca 900d      	LD   R0,X+
0000cb 901c      	LD   R1,X
0000cc 940e 0520 	CALL SUBOPT_0x3
0000ce 0fae      	ADD  R26,R30
0000cf 1fbf      	ADC  R27,R31
0000d0 940e 0660 	CALL __GETW1P
0000d2 15e0      	CP   R30,R0
0000d3 05f1      	CPC  R31,R1
0000d4 f444      	BRGE _0x11
                 ; 0000 0066 adc_min=i;
0000d5 91e0 018c 	LDS  R30,_i
0000d7 91f0 018d 	LDS  R31,_i+1
0000d9 93e0 018a 	STS  _adc_min,R30
0000db 93f0 018b 	STS  _adc_min+1,R31
                 ; 0000 0067 
                 ; 0000 0068 }
                 _0x11:
0000dd e8ac      	LDI  R26,LOW(_i)
0000de e0b1      	LDI  R27,HIGH(_i)
0000df 91ed      	LD   R30,X+
0000e0 91fd      	LD   R31,X+
0000e1 9631      	ADIW R30,1
0000e2 93fe      	ST   -X,R31
0000e3 93ee      	ST   -X,R30
0000e4 cfaa      	RJMP _0x7
                 _0x8:
                 ; 0000 0069 
                 ; 0000 006A 
                 ; 0000 006B 
                 ; 0000 006C 
                 ; 0000 006D    #asm ("wdr");
0000e5 95a8      	wdr
                 ; 0000 006E 
                 ; 0000 006F lcd_gotoxy(0,0);
0000e6 e0e0      	LDI  R30,LOW(0)
0000e7 940e 0534 	CALL SUBOPT_0x5
                 ; 0000 0070 lcd_putchar((adc_min/10)%10+'0');
0000e9 940e 0539 	CALL SUBOPT_0x6
0000eb 940e 0540 	CALL SUBOPT_0x7
                 ; 0000 0071 lcd_putchar((adc_min/1)%10+'0');
0000ed 940e 0539 	CALL SUBOPT_0x6
0000ef 940e 054b 	CALL SUBOPT_0x8
                 ; 0000 0072 lcd_putchar(':');
0000f1 e3ea      	LDI  R30,LOW(58)
0000f2 93ea      	ST   -Y,R30
0000f3 940e 04ab 	CALL _lcd_putchar
                 ; 0000 0073 
                 ; 0000 0074    #asm ("wdr");
0000f5 95a8      	wdr
                 ; 0000 0075 
                 ; 0000 0076 lcd_putchar((adc[adc_min]/1000)%10+'0');
0000f6 940e 0529 	CALL SUBOPT_0x4
0000f8 940e 0660 	CALL __GETW1P
0000fa 01df      	MOVW R26,R30
0000fb eee8      	LDI  R30,LOW(1000)
0000fc e0f3      	LDI  R31,HIGH(1000)
0000fd 940e 0540 	CALL SUBOPT_0x7
                 ; 0000 0077 lcd_putchar((adc[adc_min]/100)%10+'0');
0000ff 940e 0529 	CALL SUBOPT_0x4
000101 940e 0660 	CALL __GETW1P
000103 01df      	MOVW R26,R30
000104 940e 0551 	CALL SUBOPT_0x9
                 ; 0000 0078 lcd_putchar((adc[adc_min]/10)%10+'0');
000106 940e 0529 	CALL SUBOPT_0x4
000108 940e 0660 	CALL __GETW1P
00010a 01df      	MOVW R26,R30
00010b 940e 0554 	CALL SUBOPT_0xA
                 ; 0000 0079 lcd_putchar((adc[adc_min]/1)%10+'0');
00010d 940e 0529 	CALL SUBOPT_0x4
00010f 940e 0660 	CALL __GETW1P
000111 01df      	MOVW R26,R30
000112 940e 0557 	CALL SUBOPT_0xB
                 ; 0000 007A    #asm ("wdr");
000114 95a8      	wdr
                 ; 0000 007B 
                 ; 0000 007C 
                 ; 0000 007D B=read_adc(7);
000115 e0e7      	LDI  R30,LOW(7)
000116 93ea      	ST   -Y,R30
000117 df63      	RCALL _read_adc
000118 013f      	MOVW R6,R30
                 ; 0000 007E lcd_gotoxy(3,1);
000119 e0e3      	LDI  R30,LOW(3)
00011a 940e 055a 	CALL SUBOPT_0xC
                 ; 0000 007F lcd_putchar((B/100)%10+'0');
00011c 01d3      	MOVW R26,R6
00011d 940e 0551 	CALL SUBOPT_0x9
                 ; 0000 0080 lcd_putchar((B/10)%10+'0');
00011f 01d3      	MOVW R26,R6
000120 940e 0554 	CALL SUBOPT_0xA
                 ; 0000 0081   #asm ("wdr");
000122 95a8      	wdr
                 ; 0000 0082 
                 ; 0000 0083 L=read_adc(6);
000123 e0e6      	LDI  R30,LOW(6)
000124 93ea      	ST   -Y,R30
000125 df55      	RCALL _read_adc
000126 014f      	MOVW R8,R30
                 ; 0000 0084 lcd_gotoxy(0,1);
000127 e0e0      	LDI  R30,LOW(0)
000128 940e 055a 	CALL SUBOPT_0xC
                 ; 0000 0085 lcd_putchar((L/100)%10+'0');
00012a 01d4      	MOVW R26,R8
00012b 940e 0551 	CALL SUBOPT_0x9
                 ; 0000 0086 lcd_putchar((L/10)%10+'0');
00012d 01d4      	MOVW R26,R8
00012e 940e 0554 	CALL SUBOPT_0xA
                 ; 0000 0087   #asm ("wdr");
000130 95a8      	wdr
                 ; 0000 0088 
                 ; 0000 0089 R=read_adc(5);
000131 e0e5      	LDI  R30,LOW(5)
000132 93ea      	ST   -Y,R30
000133 df47      	RCALL _read_adc
000134 015f      	MOVW R10,R30
                 ; 0000 008A lcd_gotoxy(6,1);
000135 e0e6      	LDI  R30,LOW(6)
000136 940e 055a 	CALL SUBOPT_0xC
                 ; 0000 008B lcd_putchar((R/100)%10+'0');
000138 01d5      	MOVW R26,R10
000139 940e 0551 	CALL SUBOPT_0x9
                 ; 0000 008C lcd_putchar((R/10)%10+'0');
00013b 01d5      	MOVW R26,R10
00013c 940e 0554 	CALL SUBOPT_0xA
                 ; 0000 008D 
                 ; 0000 008E 
                 ; 0000 008F      #asm ("wdr");
00013e 95a8      	wdr
                 ; 0000 0090   ////////////////////////////////back
                 ; 0000 0091    #asm ("wdr");
00013f 95a8      	wdr
                 ; 0000 0092 kb=read_adc(4);
000140 e0e4      	LDI  R30,LOW(4)
000141 93ea      	ST   -Y,R30
000142 df38      	RCALL _read_adc
000143 93e0 0164 	STS  _kb,R30
000145 93f0 0165 	STS  _kb+1,R31
                 ; 0000 0093 lcd_gotoxy(9,1);
000147 e0e9      	LDI  R30,LOW(9)
000148 940e 055a 	CALL SUBOPT_0xC
                 ; 0000 0094 lcd_putchar((kb/100)%10+'0');
00014a 91a0 0164 	LDS  R26,_kb
00014c 91b0 0165 	LDS  R27,_kb+1
00014e 940e 0551 	CALL SUBOPT_0x9
                 ; 0000 0095 lcd_putchar((kb/10)%10+'0');
000150 91a0 0164 	LDS  R26,_kb
000152 91b0 0165 	LDS  R27,_kb+1
000154 940e 0554 	CALL SUBOPT_0xA
                 ; 0000 0096  #asm ("wdr");
000156 95a8      	wdr
                 ; 0000 0097  ////////////////////////////////////front
                 ; 0000 0098      #asm ("wdr");
000157 95a8      	wdr
                 ; 0000 0099 kf=read_adc(3);
000158 e0e3      	LDI  R30,LOW(3)
000159 93ea      	ST   -Y,R30
00015a df20      	RCALL _read_adc
00015b 93e0 0166 	STS  _kf,R30
00015d 93f0 0167 	STS  _kf+1,R31
                 ; 0000 009A lcd_gotoxy(12,1);
00015f e0ec      	LDI  R30,LOW(12)
000160 940e 055a 	CALL SUBOPT_0xC
                 ; 0000 009B lcd_putchar((kl/100)%10+'0');
000162 91a0 0162 	LDS  R26,_kl
000164 91b0 0163 	LDS  R27,_kl+1
000166 940e 0551 	CALL SUBOPT_0x9
                 ; 0000 009C lcd_putchar((kl/10)%10+'0');
000168 91a0 0162 	LDS  R26,_kl
00016a 91b0 0163 	LDS  R27,_kl+1
00016c 940e 0554 	CALL SUBOPT_0xA
                 ; 0000 009D 
                 ; 0000 009E      #asm ("wdr");
00016e 95a8      	wdr
                 ; 0000 009F 
                 ; 0000 00A0  /////////////////////////////////////right
                 ; 0000 00A1           #asm ("wdr");
00016f 95a8      	wdr
                 ; 0000 00A2 kr=read_adc(2);
000170 e0e2      	LDI  R30,LOW(2)
000171 93ea      	ST   -Y,R30
000172 df08      	RCALL _read_adc
000173 93e0 0160 	STS  _kr,R30
000175 93f0 0161 	STS  _kr+1,R31
                 ; 0000 00A3 lcd_gotoxy(14,0);
000177 e0ee      	LDI  R30,LOW(14)
000178 940e 0534 	CALL SUBOPT_0x5
                 ; 0000 00A4 lcd_putchar((kr/100)%10+'0');
00017a 940e 055f 	CALL SUBOPT_0xD
00017c 940e 0551 	CALL SUBOPT_0x9
                 ; 0000 00A5 lcd_putchar((kr/10)%10+'0');
00017e 940e 055f 	CALL SUBOPT_0xD
000180 940e 0554 	CALL SUBOPT_0xA
                 ; 0000 00A6 
                 ; 0000 00A7      #asm ("wdr");
000182 95a8      	wdr
                 ; 0000 00A8 
                 ; 0000 00A9 
                 ; 0000 00AA 
                 ; 0000 00AB  ////////////////////////////////////left
                 ; 0000 00AC           #asm ("wdr");
000183 95a8      	wdr
                 ; 0000 00AD kl=read_adc(1);
000184 e0e1      	LDI  R30,LOW(1)
000185 93ea      	ST   -Y,R30
000186 def4      	RCALL _read_adc
000187 93e0 0162 	STS  _kl,R30
000189 93f0 0163 	STS  _kl+1,R31
                 ; 0000 00AE lcd_gotoxy(11,0);
00018b e0eb      	LDI  R30,LOW(11)
00018c 940e 0534 	CALL SUBOPT_0x5
                 ; 0000 00AF lcd_putchar((kf/100)%10+'0');
00018e 91a0 0166 	LDS  R26,_kf
000190 91b0 0167 	LDS  R27,_kf+1
000192 940e 0551 	CALL SUBOPT_0x9
                 ; 0000 00B0 lcd_putchar((kf/10)%10+'0');
000194 91a0 0166 	LDS  R26,_kf
000196 91b0 0167 	LDS  R27,_kf+1
000198 940e 0554 	CALL SUBOPT_0xA
                 ; 0000 00B1 
                 ; 0000 00B2      #asm ("wdr");
00019a 95a8      	wdr
                 ; 0000 00B3 
                 ; 0000 00B4 
                 ; 0000 00B5 
                 ; 0000 00B6 
                 ; 0000 00B7  }
00019b 9508      	RET
                 ;
                 ;void motor(int ML1,int ML2,int MR2,int MR1)
                 ; 0000 00BA { #asm ("wdr");
                 _motor:
                 ;	ML1 -> Y+6
                 ;	ML2 -> Y+4
                 ;	MR2 -> Y+2
                 ;	MR1 -> Y+0
00019c 95a8      	wdr
                 ; 0000 00BB if(MR1>255)   MR1=255;
00019d 81a8      	LD   R26,Y
00019e 81b9      	LDD  R27,Y+1
00019f 30a0      	CPI  R26,LOW(0x100)
0001a0 e0e1      	LDI  R30,HIGH(0x100)
0001a1 07be      	CPC  R27,R30
0001a2 f024      	BRLT _0x12
0001a3 efef      	LDI  R30,LOW(255)
0001a4 e0f0      	LDI  R31,HIGH(255)
0001a5 83e8      	ST   Y,R30
0001a6 83f9      	STD  Y+1,R31
                 ; 0000 00BC if(MR1<-255)  MR1=-255;
                 _0x12:
0001a7 81a8      	LD   R26,Y
0001a8 81b9      	LDD  R27,Y+1
0001a9 30a1      	CPI  R26,LOW(0xFF01)
0001aa efef      	LDI  R30,HIGH(0xFF01)
0001ab 07be      	CPC  R27,R30
0001ac f424      	BRGE _0x13
0001ad e0e1      	LDI  R30,LOW(65281)
0001ae efff      	LDI  R31,HIGH(65281)
0001af 83e8      	ST   Y,R30
0001b0 83f9      	STD  Y+1,R31
                 ; 0000 00BD if(MR2>255)   MR2=255;
                 _0x13:
0001b1 81aa      	LDD  R26,Y+2
0001b2 81bb      	LDD  R27,Y+2+1
0001b3 30a0      	CPI  R26,LOW(0x100)
0001b4 e0e1      	LDI  R30,HIGH(0x100)
0001b5 07be      	CPC  R27,R30
0001b6 f024      	BRLT _0x14
0001b7 efef      	LDI  R30,LOW(255)
0001b8 e0f0      	LDI  R31,HIGH(255)
0001b9 83ea      	STD  Y+2,R30
0001ba 83fb      	STD  Y+2+1,R31
                 ; 0000 00BE if(MR2<-255)  MR2=-255;
                 _0x14:
0001bb 81aa      	LDD  R26,Y+2
0001bc 81bb      	LDD  R27,Y+2+1
0001bd 30a1      	CPI  R26,LOW(0xFF01)
0001be efef      	LDI  R30,HIGH(0xFF01)
0001bf 07be      	CPC  R27,R30
0001c0 f424      	BRGE _0x15
0001c1 e0e1      	LDI  R30,LOW(65281)
0001c2 efff      	LDI  R31,HIGH(65281)
0001c3 83ea      	STD  Y+2,R30
0001c4 83fb      	STD  Y+2+1,R31
                 ; 0000 00BF if(ML2>255)   ML2=255;
                 _0x15:
0001c5 81ac      	LDD  R26,Y+4
0001c6 81bd      	LDD  R27,Y+4+1
0001c7 30a0      	CPI  R26,LOW(0x100)
0001c8 e0e1      	LDI  R30,HIGH(0x100)
0001c9 07be      	CPC  R27,R30
0001ca f024      	BRLT _0x16
0001cb efef      	LDI  R30,LOW(255)
0001cc e0f0      	LDI  R31,HIGH(255)
0001cd 83ec      	STD  Y+4,R30
0001ce 83fd      	STD  Y+4+1,R31
                 ; 0000 00C0 if(ML2<-255)  ML2=-255;
                 _0x16:
0001cf 81ac      	LDD  R26,Y+4
0001d0 81bd      	LDD  R27,Y+4+1
0001d1 30a1      	CPI  R26,LOW(0xFF01)
0001d2 efef      	LDI  R30,HIGH(0xFF01)
0001d3 07be      	CPC  R27,R30
0001d4 f424      	BRGE _0x17
0001d5 e0e1      	LDI  R30,LOW(65281)
0001d6 efff      	LDI  R31,HIGH(65281)
0001d7 83ec      	STD  Y+4,R30
0001d8 83fd      	STD  Y+4+1,R31
                 ; 0000 00C1 if(ML1>255)   ML1=255;
                 _0x17:
0001d9 81ae      	LDD  R26,Y+6
0001da 81bf      	LDD  R27,Y+6+1
0001db 30a0      	CPI  R26,LOW(0x100)
0001dc e0e1      	LDI  R30,HIGH(0x100)
0001dd 07be      	CPC  R27,R30
0001de f024      	BRLT _0x18
0001df efef      	LDI  R30,LOW(255)
0001e0 e0f0      	LDI  R31,HIGH(255)
0001e1 83ee      	STD  Y+6,R30
0001e2 83ff      	STD  Y+6+1,R31
                 ; 0000 00C2 if(ML1<-255)  ML1=-255;
                 _0x18:
0001e3 81ae      	LDD  R26,Y+6
0001e4 81bf      	LDD  R27,Y+6+1
0001e5 30a1      	CPI  R26,LOW(0xFF01)
0001e6 efef      	LDI  R30,HIGH(0xFF01)
0001e7 07be      	CPC  R27,R30
0001e8 f424      	BRGE _0x19
0001e9 e0e1      	LDI  R30,LOW(65281)
0001ea efff      	LDI  R31,HIGH(65281)
0001eb 83ee      	STD  Y+6,R30
0001ec 83ff      	STD  Y+6+1,R31
                 ; 0000 00C3 
                 ; 0000 00C4   #asm ("wdr");
                 _0x19:
0001ed 95a8      	wdr
                 ; 0000 00C5 
                 ; 0000 00C6 ///////////////////////////////////////////////////////////////////////MR1
                 ; 0000 00C7 
                 ; 0000 00C8 if (MR1>0)
0001ee 81a8      	LD   R26,Y
0001ef 81b9      	LDD  R27,Y+1
0001f0 940e 068d 	CALL __CPW02
0001f2 f434      	BRGE _0x1A
                 ; 0000 00C9 {#asm ("wdr");
0001f3 95a8      	wdr
                 ; 0000 00CA PORTD.0=0;
0001f4 9890      	CBI  0x12,0
                 ; 0000 00CB OCR0=MR1;
0001f5 81e8      	LD   R30,Y
0001f6 bfec      	OUT  0x3C,R30
                 ; 0000 00CC #asm ("wdr");}
0001f7 95a8      	wdr
                 ; 0000 00CD else if(MR1<=0)
0001f8 c00b      	RJMP _0x1D
                 _0x1A:
0001f9 81a8      	LD   R26,Y
0001fa 81b9      	LDD  R27,Y+1
0001fb 940e 068d 	CALL __CPW02
0001fd f034      	BRLT _0x1E
                 ; 0000 00CE {  #asm ("wdr");
0001fe 95a8      	wdr
                 ; 0000 00CF PORTD.0=1;
0001ff 9a90      	SBI  0x12,0
                 ; 0000 00D0 OCR0=255+MR1;
000200 81e8      	LD   R30,Y
000201 50e1      	SUBI R30,-LOW(255)
000202 bfec      	OUT  0x3C,R30
                 ; 0000 00D1 #asm ("wdr");
000203 95a8      	wdr
                 ; 0000 00D2 }
                 ; 0000 00D3 /////////////////////////////////////////////////////////////////////////MR2
                 ; 0000 00D4 if (MR2>0)
                 _0x1E:
                 _0x1D:
000204 81aa      	LDD  R26,Y+2
000205 81bb      	LDD  R27,Y+2+1
000206 940e 068d 	CALL __CPW02
000208 f444      	BRGE _0x21
                 ; 0000 00D5 {   #asm ("wdr");
000209 95a8      	wdr
                 ; 0000 00D6 PORTD.1=0;
00020a 9891      	CBI  0x12,1
                 ; 0000 00D7 OCR1B=MR2;
00020b 81ea      	LDD  R30,Y+2
00020c 81fb      	LDD  R31,Y+2+1
00020d bdf9      	OUT  0x28+1,R31
00020e bde8      	OUT  0x28,R30
                 ; 0000 00D8 #asm ("wdr");
00020f 95a8      	wdr
                 ; 0000 00D9 }
                 ; 0000 00DA else if(MR2<=0)
000210 c00e      	RJMP _0x24
                 _0x21:
000211 81aa      	LDD  R26,Y+2
000212 81bb      	LDD  R27,Y+2+1
000213 940e 068d 	CALL __CPW02
000215 f04c      	BRLT _0x25
                 ; 0000 00DB { #asm ("wdr");
000216 95a8      	wdr
                 ; 0000 00DC PORTD.1=1;
000217 9a91      	SBI  0x12,1
                 ; 0000 00DD OCR1B=255+MR2;
000218 81ea      	LDD  R30,Y+2
000219 81fb      	LDD  R31,Y+2+1
00021a 50e1      	SUBI R30,LOW(-255)
00021b 4fff      	SBCI R31,HIGH(-255)
00021c bdf9      	OUT  0x28+1,R31
00021d bde8      	OUT  0x28,R30
                 ; 0000 00DE #asm ("wdr");
00021e 95a8      	wdr
                 ; 0000 00DF }
                 ; 0000 00E0 ////////////////////////////////////////////////////////////////////////ML2
                 ; 0000 00E1 if (ML2>0)
                 _0x25:
                 _0x24:
00021f 81ac      	LDD  R26,Y+4
000220 81bd      	LDD  R27,Y+4+1
000221 940e 068d 	CALL __CPW02
000223 f444      	BRGE _0x28
                 ; 0000 00E2 { #asm ("wdr");
000224 95a8      	wdr
                 ; 0000 00E3 PORTD.2=0;
000225 9892      	CBI  0x12,2
                 ; 0000 00E4 OCR1A=ML2;
000226 81ec      	LDD  R30,Y+4
000227 81fd      	LDD  R31,Y+4+1
000228 bdfb      	OUT  0x2A+1,R31
000229 bdea      	OUT  0x2A,R30
                 ; 0000 00E5 #asm ("wdr");
00022a 95a8      	wdr
                 ; 0000 00E6 }
                 ; 0000 00E7 else if(ML2<=0)
00022b c00e      	RJMP _0x2B
                 _0x28:
00022c 81ac      	LDD  R26,Y+4
00022d 81bd      	LDD  R27,Y+4+1
00022e 940e 068d 	CALL __CPW02
000230 f04c      	BRLT _0x2C
                 ; 0000 00E8 {     #asm ("wdr");
000231 95a8      	wdr
                 ; 0000 00E9 PORTD.2=1;
000232 9a92      	SBI  0x12,2
                 ; 0000 00EA OCR1A=255+ML2;
000233 81ec      	LDD  R30,Y+4
000234 81fd      	LDD  R31,Y+4+1
000235 50e1      	SUBI R30,LOW(-255)
000236 4fff      	SBCI R31,HIGH(-255)
000237 bdfb      	OUT  0x2A+1,R31
000238 bdea      	OUT  0x2A,R30
                 ; 0000 00EB #asm ("wdr");
000239 95a8      	wdr
                 ; 0000 00EC }
                 ; 0000 00ED ///////////////////////////////////////////////////////////////////////ML1
                 ; 0000 00EE if(ML1>0)
                 _0x2C:
                 _0x2B:
00023a 81ae      	LDD  R26,Y+6
00023b 81bf      	LDD  R27,Y+6+1
00023c 940e 068d 	CALL __CPW02
00023e f434      	BRGE _0x2F
                 ; 0000 00EF {#asm ("wdr");
00023f 95a8      	wdr
                 ; 0000 00F0 PORTD.3=0;
000240 9893      	CBI  0x12,3
                 ; 0000 00F1 OCR2=ML1;
000241 81ee      	LDD  R30,Y+6
000242 bde3      	OUT  0x23,R30
                 ; 0000 00F2 #asm ("wdr");
000243 95a8      	wdr
                 ; 0000 00F3 }
                 ; 0000 00F4 else if(ML1<=0)
000244 c00b      	RJMP _0x32
                 _0x2F:
000245 81ae      	LDD  R26,Y+6
000246 81bf      	LDD  R27,Y+6+1
000247 940e 068d 	CALL __CPW02
000249 f034      	BRLT _0x33
                 ; 0000 00F5 {  #asm ("wdr");
00024a 95a8      	wdr
                 ; 0000 00F6 PORTD.3=1;
00024b 9a93      	SBI  0x12,3
                 ; 0000 00F7 OCR2=255+ML1;
00024c 81ee      	LDD  R30,Y+6
00024d 50e1      	SUBI R30,-LOW(255)
00024e bde3      	OUT  0x23,R30
                 ; 0000 00F8 #asm ("wdr");
00024f 95a8      	wdr
                 ; 0000 00F9 }
                 ; 0000 00FA }
                 _0x33:
                 _0x32:
000250 9628      	ADIW R28,8
000251 9508      	RET
                 ;void main(void)
                 ; 0000 00FC {
                 _main:
                 ; 0000 00FD // Declare your local variables here
                 ; 0000 00FE 
                 ; 0000 00FF // Input/Output Ports initialization
                 ; 0000 0100 // Port A initialization
                 ; 0000 0101 // Func7=In Func6=In Func5=In Func4=In Func3=In Func2=In Func1=In Func0=In
                 ; 0000 0102 // State7=T State6=T State5=T State4=T State3=T State2=T State1=T State0=T
                 ; 0000 0103 PORTA=0x00;
000252 e0e0      	LDI  R30,LOW(0)
000253 bbeb      	OUT  0x1B,R30
                 ; 0000 0104 DDRA=0x00;
000254 bbea      	OUT  0x1A,R30
                 ; 0000 0105 
                 ; 0000 0106 // Port B initialization
                 ; 0000 0107 // Func7=Out Func6=Out Func5=Out Func4=Out Func3=Out Func2=Out Func1=In Func0=In
                 ; 0000 0108 // State7=0 State6=0 State5=0 State4=0 State3=0 State2=0 State1=T State0=T
                 ; 0000 0109 PORTB=0x00;
000255 bbe8      	OUT  0x18,R30
                 ; 0000 010A DDRB=0xFC;
000256 efec      	LDI  R30,LOW(252)
000257 bbe7      	OUT  0x17,R30
                 ; 0000 010B 
                 ; 0000 010C // Port C initialization
                 ; 0000 010D // Func7=In Func6=In Func5=In Func4=In Func3=In Func2=In Func1=In Func0=In
                 ; 0000 010E // State7=T State6=T State5=T State4=T State3=T State2=T State1=T State0=T
                 ; 0000 010F PORTC=0x00;
000258 e0e0      	LDI  R30,LOW(0)
000259 bbe5      	OUT  0x15,R30
                 ; 0000 0110 DDRC=0x00;
00025a bbe4      	OUT  0x14,R30
                 ; 0000 0111 
                 ; 0000 0112 // Port D initialization
                 ; 0000 0113 // Func7=Out Func6=Out Func5=Out Func4=Out Func3=Out Func2=Out Func1=Out Func0=Out
                 ; 0000 0114 // State7=0 State6=0 State5=0 State4=0 State3=0 State2=0 State1=0 State0=0
                 ; 0000 0115 PORTD=0x00;
00025b bbe2      	OUT  0x12,R30
                 ; 0000 0116 DDRD=0xFF;
00025c efef      	LDI  R30,LOW(255)
00025d bbe1      	OUT  0x11,R30
                 ; 0000 0117 
                 ; 0000 0118 // Timer/Counter 0 initialization
                 ; 0000 0119 // Clock source: System Clock
                 ; 0000 011A // Clock value: 15.625 kHz
                 ; 0000 011B // Mode: Fast PWM top=FFh
                 ; 0000 011C // OC0 output: Non-Inverted PWM
                 ; 0000 011D TCCR0=0x6B;
00025e e6eb      	LDI  R30,LOW(107)
00025f bfe3      	OUT  0x33,R30
                 ; 0000 011E TCNT0=0x00;
000260 e0e0      	LDI  R30,LOW(0)
000261 bfe2      	OUT  0x32,R30
                 ; 0000 011F OCR0=0x00;
000262 bfec      	OUT  0x3C,R30
                 ; 0000 0120 
                 ; 0000 0121 // Timer/Counter 1 initialization
                 ; 0000 0122 // Clock source: System Clock
                 ; 0000 0123 // Clock value: 15.625 kHz
                 ; 0000 0124 // Mode: Fast PWM top=00FFh
                 ; 0000 0125 // OC1A output: Non-Inv.
                 ; 0000 0126 // OC1B output: Non-Inv.
                 ; 0000 0127 // Noise Canceler: Off
                 ; 0000 0128 // Input Capture on Falling Edge
                 ; 0000 0129 // Timer1 Overflow Interrupt: Off
                 ; 0000 012A // Input Capture Interrupt: Off
                 ; 0000 012B // Compare A Match Interrupt: Off
                 ; 0000 012C // Compare B Match Interrupt: Off
                 ; 0000 012D TCCR1A=0xA1;
000263 eae1      	LDI  R30,LOW(161)
000264 bdef      	OUT  0x2F,R30
                 ; 0000 012E TCCR1B=0x0B;
000265 e0eb      	LDI  R30,LOW(11)
000266 bdee      	OUT  0x2E,R30
                 ; 0000 012F TCNT1H=0x00;
000267 e0e0      	LDI  R30,LOW(0)
000268 bded      	OUT  0x2D,R30
                 ; 0000 0130 TCNT1L=0x00;
000269 bdec      	OUT  0x2C,R30
                 ; 0000 0131 ICR1H=0x00;
00026a bde7      	OUT  0x27,R30
                 ; 0000 0132 ICR1L=0x00;
00026b bde6      	OUT  0x26,R30
                 ; 0000 0133 OCR1AH=0x00;
00026c bdeb      	OUT  0x2B,R30
                 ; 0000 0134 OCR1AL=0x00;
00026d bdea      	OUT  0x2A,R30
                 ; 0000 0135 OCR1BH=0x00;
00026e bde9      	OUT  0x29,R30
                 ; 0000 0136 OCR1BL=0x00;
00026f bde8      	OUT  0x28,R30
                 ; 0000 0137 
                 ; 0000 0138 // Timer/Counter 2 initialization
                 ; 0000 0139 // Clock source: System Clock
                 ; 0000 013A // Clock value: 15.625 kHz
                 ; 0000 013B // Mode: Fast PWM top=FFh
                 ; 0000 013C // OC2 output: Non-Inverted PWM
                 ; 0000 013D ASSR=0x00;
000270 bde2      	OUT  0x22,R30
                 ; 0000 013E TCCR2=0x6C;
000271 e6ec      	LDI  R30,LOW(108)
000272 bde5      	OUT  0x25,R30
                 ; 0000 013F TCNT2=0x00;
000273 e0e0      	LDI  R30,LOW(0)
000274 bde4      	OUT  0x24,R30
                 ; 0000 0140 OCR2=0x00;
000275 bde3      	OUT  0x23,R30
                 ; 0000 0141 
                 ; 0000 0142 // External Interrupt(s) initialization
                 ; 0000 0143 // INT0: Off
                 ; 0000 0144 // INT1: Off
                 ; 0000 0145 // INT2: Off
                 ; 0000 0146 MCUCR=0x00;
000276 bfe5      	OUT  0x35,R30
                 ; 0000 0147 MCUCSR=0x00;
000277 bfe4      	OUT  0x34,R30
                 ; 0000 0148 
                 ; 0000 0149 // Timer(s)/Counter(s) Interrupt(s) initialization
                 ; 0000 014A TIMSK=0x00;
000278 bfe9      	OUT  0x39,R30
                 ; 0000 014B 
                 ; 0000 014C // Analog Comparator initialization
                 ; 0000 014D // Analog Comparator: Off
                 ; 0000 014E // Analog Comparator Input Capture by Timer/Counter 1: Off
                 ; 0000 014F ACSR=0x80;
000279 e8e0      	LDI  R30,LOW(128)
00027a b9e8      	OUT  0x8,R30
                 ; 0000 0150 SFIOR=0x00;
00027b e0e0      	LDI  R30,LOW(0)
00027c bfe0      	OUT  0x30,R30
                 ; 0000 0151 
                 ; 0000 0152 // ADC initialization
                 ; 0000 0153 // ADC Clock frequency: 125.000 kHz
                 ; 0000 0154 // ADC Voltage Reference: AVCC pin
                 ; 0000 0155 // ADC Auto Trigger Source: None
                 ; 0000 0156 ADMUX=ADC_VREF_TYPE & 0xff;
00027d e4e0      	LDI  R30,LOW(64)
00027e b9e7      	OUT  0x7,R30
                 ; 0000 0157 ADCSRA=0x83;
00027f e8e3      	LDI  R30,LOW(131)
000280 b9e6      	OUT  0x6,R30
                 ; 0000 0158 
                 ; 0000 0159 // I2C Bus initialization
                 ; 0000 015A i2c_init();
000281 940e 05bd 	CALL _i2c_init
                 ; 0000 015B 
                 ; 0000 015C // LCD module initialization
                 ; 0000 015D lcd_init(16);
000283 e1e0      	LDI  R30,LOW(16)
000284 93ea      	ST   -Y,R30
000285 940e 04e2 	CALL _lcd_init
                 ; 0000 015E 
                 ; 0000 015F // Watchdog Timer initialization
                 ; 0000 0160 // Watchdog Timer Prescaler: OSC/256k
                 ; 0000 0161 #pragma optsize-
                 ; 0000 0162 WDTCR=0x1C;
000287 e1ec      	LDI  R30,LOW(28)
000288 bde1      	OUT  0x21,R30
                 ; 0000 0163 WDTCR=0x0C;
000289 e0ec      	LDI  R30,LOW(12)
00028a bde1      	OUT  0x21,R30
                 ; 0000 0164 #ifdef _OPTIMIZE_SIZE_
                 ; 0000 0165 #pragma optsize+
                 ; 0000 0166 #endif
                 ; 0000 0167 
                 ; 0000 0168 if(PINC.3==1)
00028b 9b9b      	SBIS 0x13,3
00028c c011      	RJMP _0x36
                 ; 0000 0169 {       #asm ("wdr");
00028d 95a8      	wdr
                 ; 0000 016A 
                 ; 0000 016B  c=compass_read(1);
00028e e0e1      	LDI  R30,LOW(1)
00028f 93ea      	ST   -Y,R30
000290 940e 005f 	CALL _compass_read
000292 e0a0      	LDI  R26,LOW(_c)
000293 e0b0      	LDI  R27,HIGH(_c)
000294 e0f0      	LDI  R31,0
000295 940e 0674 	CALL __EEPROMWRW
                 ; 0000 016C  delay_ms(1000);
000297 eee8      	LDI  R30,LOW(1000)
000298 e0f3      	LDI  R31,HIGH(1000)
000299 93fa      	ST   -Y,R31
00029a 93ea      	ST   -Y,R30
00029b 940e 060f 	CALL _delay_ms
                 ; 0000 016D 
                 ; 0000 016E 
                 ; 0000 016F     #asm ("wdr");
00029d 95a8      	wdr
                 ; 0000 0170  }
                 ; 0000 0171 while (1)
                 _0x36:
                 _0x37:
                 ; 0000 0172       {
                 ; 0000 0173 
                 ; 0000 0174 
                 ; 0000 0175         #asm ("wdr");
00029e 95a8      	wdr
                 ; 0000 0176      cmp=compass_read(1)-c;
00029f e0e1      	LDI  R30,LOW(1)
0002a0 93ea      	ST   -Y,R30
0002a1 940e 005f 	CALL _compass_read
0002a3 2e0e      	MOV  R0,R30
0002a4 2411      	CLR  R1
0002a5 e0a0      	LDI  R26,LOW(_c)
0002a6 e0b0      	LDI  R27,HIGH(_c)
0002a7 940e 0664 	CALL __EEPROMRDW
0002a9 01d0      	MOVW R26,R0
0002aa 1bae      	SUB  R26,R30
0002ab 0bbf      	SBC  R27,R31
0002ac 012d      	MOVW R4,R26
                 ; 0000 0177        if(cmp<0)    cmp=cmp+255;
0002ad 2400      	CLR  R0
0002ae 1440      	CP   R4,R0
0002af 0450      	CPC  R5,R0
0002b0 f424      	BRGE _0x3A
0002b1 01f2      	MOVW R30,R4
0002b2 50e1      	SUBI R30,LOW(-255)
0002b3 4fff      	SBCI R31,HIGH(-255)
0002b4 012f      	MOVW R4,R30
                 ; 0000 0178        if(cmp>128)  cmp=cmp-255;
                 _0x3A:
0002b5 e8e0      	LDI  R30,LOW(128)
0002b6 e0f0      	LDI  R31,HIGH(128)
0002b7 15e4      	CP   R30,R4
0002b8 05f5      	CPC  R31,R5
0002b9 f424      	BRGE _0x3B
0002ba efef      	LDI  R30,LOW(255)
0002bb e0f0      	LDI  R31,HIGH(255)
                +
0002bc 1a4e     +SUB R4 , R30
0002bd 0a5f     +SBC R5 , R31
                 	__SUBWRR 4,5,30,31
                 ; 0000 0179        if(cmp<128)  cmp=cmp;
                 _0x3B:
0002be e8e0      	LDI  R30,LOW(128)
0002bf e0f0      	LDI  R31,HIGH(128)
0002c0 164e      	CP   R4,R30
0002c1 065f      	CPC  R5,R31
0002c2 f40c      	BRGE _0x3C
0002c3 0122      	MOVW R4,R4
                 ; 0000 017A           #asm ("wdr");
                 _0x3C:
0002c4 95a8      	wdr
                 ; 0000 017B         if(cmp>=0)
0002c5 2400      	CLR  R0
0002c6 1440      	CP   R4,R0
0002c7 0450      	CPC  R5,R0
0002c8 f064      	BRLT _0x3D
                 ; 0000 017C         {#asm ("wdr");
0002c9 95a8      	wdr
                 ; 0000 017D         lcd_gotoxy(8,0);
0002ca e0e8      	LDI  R30,LOW(8)
0002cb 940e 0534 	CALL SUBOPT_0x5
                 ; 0000 017E //        lcd_putchar((cmp/100)%10+'0');
                 ; 0000 017F         lcd_putchar((cmp/10)%10+'0');
0002cd 01d2      	MOVW R26,R4
0002ce 940e 0554 	CALL SUBOPT_0xA
                 ; 0000 0180         lcd_putchar((cmp/1)%10+'0');
0002d0 01d2      	MOVW R26,R4
0002d1 940e 0557 	CALL SUBOPT_0xB
                 ; 0000 0181          #asm ("wdr");
0002d3 95a8      	wdr
                 ; 0000 0182         }
                 ; 0000 0183 
                 ; 0000 0184 
                 ; 0000 0185 
                 ; 0000 0186 
                 ; 0000 0187 
                 ; 0000 0188         else
0002d4 c011      	RJMP _0x3E
                 _0x3D:
                 ; 0000 0189         {
                 ; 0000 018A         #asm ("wdr");
0002d5 95a8      	wdr
                 ; 0000 018B         lcd_gotoxy(8,0);
0002d6 e0e8      	LDI  R30,LOW(8)
0002d7 940e 0534 	CALL SUBOPT_0x5
                 ; 0000 018C //        lcd_putchar((-cmp/100)%10+'0');
                 ; 0000 018D         lcd_putchar((-cmp/10)%10+'0');
0002d9 01f2      	MOVW R30,R4
0002da 940e 061b 	CALL __ANEGW1
0002dc 01df      	MOVW R26,R30
0002dd 940e 0554 	CALL SUBOPT_0xA
                 ; 0000 018E         lcd_putchar((-cmp/1)%10+'0');
0002df 01f2      	MOVW R30,R4
0002e0 940e 061b 	CALL __ANEGW1
0002e2 01df      	MOVW R26,R30
0002e3 940e 0557 	CALL SUBOPT_0xB
                 ; 0000 018F          #asm ("wdr");
0002e5 95a8      	wdr
                 ; 0000 0190         }
                 _0x3E:
                 ; 0000 0191        if(cmp>-25 && cmp<25)
0002e6 eee7      	LDI  R30,LOW(65511)
0002e7 efff      	LDI  R31,HIGH(65511)
0002e8 15e4      	CP   R30,R4
0002e9 05f5      	CPC  R31,R5
0002ea f42c      	BRGE _0x40
0002eb e1e9      	LDI  R30,LOW(25)
0002ec e0f0      	LDI  R31,HIGH(25)
0002ed 164e      	CP   R4,R30
0002ee 065f      	CPC  R5,R31
0002ef f00c      	BRLT _0x41
                 _0x40:
0002f0 c008      	RJMP _0x3F
                 _0x41:
                 ; 0000 0192        cmp=-cmp*3;
0002f1 01f2      	MOVW R30,R4
0002f2 940e 061b 	CALL __ANEGW1
0002f4 e0a3      	LDI  R26,LOW(3)
0002f5 e0b0      	LDI  R27,HIGH(3)
0002f6 940e 0627 	CALL __MULW12
0002f8 c003      	RJMP _0x72
                 ; 0000 0193        else  cmp=-cmp*1;
                 _0x3F:
0002f9 01f2      	MOVW R30,R4
0002fa 940e 061b 	CALL __ANEGW1
                 _0x72:
0002fc 012f      	MOVW R4,R30
                 ; 0000 0194 
                 ; 0000 0195          read_sensor();
0002fd 940e 0089 	CALL _read_sensor
                 ; 0000 0196         e=(R-L);
0002ff 01f5      	MOVW R30,R10
000300 19e8      	SUB  R30,R8
000301 09f9      	SBC  R31,R9
000302 016f      	MOVW R12,R30
                 ; 0000 0197         if((kr>600)&&(adc[adc_min]<700))
000303 940e 055f 	CALL SUBOPT_0xD
000305 35a9      	CPI  R26,LOW(0x259)
000306 e0e2      	LDI  R30,HIGH(0x259)
000307 07be      	CPC  R27,R30
000308 f044      	BRLT _0x44
000309 940e 0529 	CALL SUBOPT_0x4
00030b 940e 0660 	CALL __GETW1P
00030d 3bec      	CPI  R30,LOW(0x2BC)
00030e e0a2      	LDI  R26,HIGH(0x2BC)
00030f 07fa      	CPC  R31,R26
000310 f00c      	BRLT _0x45
                 _0x44:
000311 c007      	RJMP _0x43
                 _0x45:
                 ; 0000 0198         f=1;
000312 e0e1      	LDI  R30,LOW(1)
000313 e0f0      	LDI  R31,HIGH(1)
000314 93e0 0168 	STS  _f,R30
000316 93f0 0169 	STS  _f+1,R31
                 ; 0000 0199         else f=0;
000318 c005      	RJMP _0x46
                 _0x43:
000319 e0e0      	LDI  R30,LOW(0)
00031a 93e0 0168 	STS  _f,R30
00031c 93e0 0169 	STS  _f+1,R30
                 ; 0000 019A 
                 ; 0000 019B         if (f==1)
                 _0x46:
00031e 91a0 0168 	LDS  R26,_f
000320 91b0 0169 	LDS  R27,_f+1
000322 9711      	SBIW R26,1
000323 f529      	BRNE _0x47
                 ; 0000 019C           {
                 ; 0000 019D            if(B<200)                motor(-255-e+cmp,-255+e+cmp,255+e+cmp,255-e+cmp);// 8
000324 ece8      	LDI  R30,LOW(200)
000325 e0f0      	LDI  R31,HIGH(200)
000326 166e      	CP   R6,R30
000327 067f      	CPC  R7,R31
000328 f464      	BRGE _0x48
000329 e0e1      	LDI  R30,LOW(65281)
00032a efff      	LDI  R31,HIGH(65281)
00032b 940e 0564 	CALL SUBOPT_0xE
00032d 940e 056c 	CALL SUBOPT_0xF
00032f 01f6      	MOVW R30,R12
000330 940e 0573 	CALL SUBOPT_0x10
000332 efef      	LDI  R30,LOW(255)
000333 e0f0      	LDI  R31,HIGH(255)
000334 c00b      	RJMP _0x73
                 ; 0000 019E            else          motor(255-e+cmp,255+e+cmp,-255+e+cmp,-255-e+cmp);//0
                 _0x48:
000335 efef      	LDI  R30,LOW(255)
000336 e0f0      	LDI  R31,HIGH(255)
000337 940e 0564 	CALL SUBOPT_0xE
000339 940e 0573 	CALL SUBOPT_0x10
00033b 01f6      	MOVW R30,R12
00033c 940e 056c 	CALL SUBOPT_0xF
00033e e0e1      	LDI  R30,LOW(65281)
00033f efff      	LDI  R31,HIGH(65281)
                 _0x73:
000340 19ec      	SUB  R30,R12
000341 09fd      	SBC  R31,R13
000342 0de4      	ADD  R30,R4
000343 1df5      	ADC  R31,R5
000344 93fa      	ST   -Y,R31
000345 93ea      	ST   -Y,R30
000346 940e 019c 	CALL _motor
                 ; 0000 019F           }
                 ; 0000 01A0 
                 ; 0000 01A1 
                 ; 0000 01A2        else
000348 c0f5      	RJMP _0x4A
                 _0x47:
                 ; 0000 01A3           {
                 ; 0000 01A4        if ((adc[adc_min]<700))
000349 940e 0529 	CALL SUBOPT_0x4
00034b 940e 0660 	CALL __GETW1P
00034d 3bec      	CPI  R30,LOW(0x2BC)
00034e e0a2      	LDI  R26,HIGH(0x2BC)
00034f 07fa      	CPC  R31,R26
000350 f014      	BRLT PC+3
000351 940c 043e 	JMP _0x4B
                 ; 0000 01A5     {
                 ; 0000 01A6 
                 ; 0000 01A7        #asm ("wdr");
000353 95a8      	wdr
                 ; 0000 01A8           if((L>450 && R>450))
000354 ece2      	LDI  R30,LOW(450)
000355 e0f1      	LDI  R31,HIGH(450)
000356 15e8      	CP   R30,R8
000357 05f9      	CPC  R31,R9
000358 f41c      	BRGE _0x4D
000359 15ea      	CP   R30,R10
00035a 05fb      	CPC  R31,R11
00035b f00c      	BRLT _0x4E
                 _0x4D:
00035c c01a      	RJMP _0x4C
                 _0x4E:
                 ; 0000 01A9        {
                 ; 0000 01AA        #asm ("wdr");
00035d 95a8      	wdr
                 ; 0000 01AB        if(B>230 ) motor(255+cmp,255+cmp,-255+cmp,-255+cmp);
00035e eee6      	LDI  R30,LOW(230)
00035f e0f0      	LDI  R31,HIGH(230)
000360 15e6      	CP   R30,R6
000361 05f7      	CPC  R31,R7
000362 f43c      	BRGE _0x4F
000363 940e 057a 	CALL SUBOPT_0x11
000365 940e 0580 	CALL SUBOPT_0x12
000367 940e 0580 	CALL SUBOPT_0x12
000369 c007      	RJMP _0x74
                 ; 0000 01AC        else      motor(-255+cmp,-255+cmp,255+cmp,255+cmp);///8
                 _0x4F:
00036a 940e 0586 	CALL SUBOPT_0x13
00036c 940e 058c 	CALL SUBOPT_0x14
00036e 01f2      	MOVW R30,R4
00036f 50e1      	SUBI R30,LOW(-255)
000370 4fff      	SBCI R31,HIGH(-255)
                 _0x74:
000371 93fa      	ST   -Y,R31
000372 93ea      	ST   -Y,R30
000373 940e 019c 	CALL _motor
                 ; 0000 01AD        #asm ("wdr");
000375 95a8      	wdr
                 ; 0000 01AE        }
                 ; 0000 01AF 
                 ; 0000 01B0         else if(adc_min==0)                  motor(255+cmp,255+cmp,-255+cmp,-255+cmp);
000376 c0c6      	RJMP _0x51
                 _0x4C:
000377 91e0 018a 	LDS  R30,_adc_min
000379 91f0 018b 	LDS  R31,_adc_min+1
00037b 9730      	SBIW R30,0
00037c f429      	BRNE _0x52
00037d 940e 057a 	CALL SUBOPT_0x11
00037f 940e 0580 	CALL SUBOPT_0x12
000381 c0b2      	RJMP _0x75
                 ; 0000 01B1 
                 ; 0000 01B2        else if(adc_min==1)                    motor(255+cmp,128+cmp,-255+cmp,-128+cmp);///3
                 _0x52:
000382 940e 058f 	CALL SUBOPT_0x15
000384 9711      	SBIW R26,1
000385 f439      	BRNE _0x54
000386 940e 057a 	CALL SUBOPT_0x11
000388 940e 0594 	CALL SUBOPT_0x16
00038a 940e 0598 	CALL SUBOPT_0x17
00038c c0ac      	RJMP _0x76
                 ; 0000 01B3        else if(adc_min==2)                    motor(128+cmp,-255+cmp,-128+cmp,255+cmp);///5
                 _0x54:
00038d 940e 058f 	CALL SUBOPT_0x15
00038f 9712      	SBIW R26,2
000390 f439      	BRNE _0x56
000391 940e 0594 	CALL SUBOPT_0x16
000393 940e 0598 	CALL SUBOPT_0x17
000395 940e 059e 	CALL SUBOPT_0x18
000397 c0a1      	RJMP _0x76
                 ; 0000 01B4        else if(adc_min==3)                    motor(0+cmp,-255+cmp,0+cmp,255+cmp);;///6
                 _0x56:
000398 940e 058f 	CALL SUBOPT_0x15
00039a 9713      	SBIW R26,3
00039b f439      	BRNE _0x58
00039c 01f2      	MOVW R30,R4
00039d 9630      	ADIW R30,0
00039e 940e 0580 	CALL SUBOPT_0x12
0003a0 940e 05a4 	CALL SUBOPT_0x19
0003a2 c096      	RJMP _0x76
                 ; 0000 01B5        else if(adc_min==4)                    motor(128+cmp,-255+cmp,-128+cmp,255+cmp);///5
                 _0x58:
0003a3 940e 058f 	CALL SUBOPT_0x15
0003a5 9714      	SBIW R26,4
0003a6 f439      	BRNE _0x5A
0003a7 940e 0594 	CALL SUBOPT_0x16
0003a9 940e 0598 	CALL SUBOPT_0x17
0003ab 940e 059e 	CALL SUBOPT_0x18
0003ad c08b      	RJMP _0x76
                 ; 0000 01B6        else if(adc_min==5)                    motor(-128+cmp,-255+cmp,128+cmp,255+cmp);///7
                 _0x5A:
0003ae 940e 058f 	CALL SUBOPT_0x15
0003b0 9715      	SBIW R26,5
0003b1 f429      	BRNE _0x5C
0003b2 940e 05a9 	CALL SUBOPT_0x1A
0003b4 940e 05ad 	CALL SUBOPT_0x1B
0003b6 c082      	RJMP _0x76
                 ; 0000 01B7        else if(adc_min==6)                    motor(-255+cmp,-128+cmp,255+cmp,128+cmp);////9
                 _0x5C:
0003b7 940e 058f 	CALL SUBOPT_0x15
0003b9 9716      	SBIW R26,6
0003ba f459      	BRNE _0x5E
0003bb 940e 0586 	CALL SUBOPT_0x13
0003bd 01f2      	MOVW R30,R4
0003be 58e0      	SUBI R30,LOW(-65408)
0003bf 40f0      	SBCI R31,HIGH(-65408)
0003c0 940e 058c 	CALL SUBOPT_0x14
0003c2 01f2      	MOVW R30,R4
0003c3 58e0      	SUBI R30,LOW(-128)
0003c4 4fff      	SBCI R31,HIGH(-128)
0003c5 c073      	RJMP _0x76
                 ; 0000 01B8        else if(adc_min==7)                    motor(-255+cmp,-255+cmp,255+cmp,255+cmp);///8
                 _0x5E:
0003c6 940e 058f 	CALL SUBOPT_0x15
0003c8 9717      	SBIW R26,7
0003c9 f441      	BRNE _0x60
0003ca 940e 0586 	CALL SUBOPT_0x13
0003cc 940e 058c 	CALL SUBOPT_0x14
0003ce 01f2      	MOVW R30,R4
0003cf 50e1      	SUBI R30,LOW(-255)
0003d0 4fff      	SBCI R31,HIGH(-255)
0003d1 c067      	RJMP _0x76
                 ; 0000 01B9 
                 ; 0000 01BA        else if(adc_min==8)                    motor(-255+cmp,0+cmp,255+cmp,0+cmp);///10
                 _0x60:
0003d2 940e 058f 	CALL SUBOPT_0x15
0003d4 9718      	SBIW R26,8
0003d5 f449      	BRNE _0x62
0003d6 940e 0586 	CALL SUBOPT_0x13
0003d8 01f2      	MOVW R30,R4
0003d9 9630      	ADIW R30,0
0003da 940e 058c 	CALL SUBOPT_0x14
0003dc 01f2      	MOVW R30,R4
0003dd 9630      	ADIW R30,0
0003de c05a      	RJMP _0x76
                 ; 0000 01BB 
                 ; 0000 01BC        else if(adc_min==9)                    motor(0+cmp,-255+cmp,0+cmp,255+cmp);////6
                 _0x62:
0003df 940e 058f 	CALL SUBOPT_0x15
0003e1 9719      	SBIW R26,9
0003e2 f439      	BRNE _0x64
0003e3 01f2      	MOVW R30,R4
0003e4 9630      	ADIW R30,0
0003e5 940e 0580 	CALL SUBOPT_0x12
0003e7 940e 05a4 	CALL SUBOPT_0x19
0003e9 c04f      	RJMP _0x76
                 ; 0000 01BD        else if(adc_min==10)                   motor(-128+cmp,-255+cmp,128+cmp,255+cmp);///7
                 _0x64:
0003ea 940e 058f 	CALL SUBOPT_0x15
0003ec 971a      	SBIW R26,10
0003ed f429      	BRNE _0x66
0003ee 940e 05a9 	CALL SUBOPT_0x1A
0003f0 940e 05ad 	CALL SUBOPT_0x1B
0003f2 c046      	RJMP _0x76
                 ; 0000 01BE        else if(adc_min==11)                   motor(-128+cmp,-255+cmp,128+cmp,255+cmp);///7
                 _0x66:
0003f3 940e 058f 	CALL SUBOPT_0x15
0003f5 971b      	SBIW R26,11
0003f6 f429      	BRNE _0x68
0003f7 940e 05a9 	CALL SUBOPT_0x1A
0003f9 940e 05ad 	CALL SUBOPT_0x1B
0003fb c03d      	RJMP _0x76
                 ; 0000 01BF        else if(adc_min==12)                   motor(-255+cmp,0+cmp,255+cmp,0+cmp);///10
                 _0x68:
0003fc 940e 058f 	CALL SUBOPT_0x15
0003fe 971c      	SBIW R26,12
0003ff f449      	BRNE _0x6A
000400 940e 0586 	CALL SUBOPT_0x13
000402 01f2      	MOVW R30,R4
000403 9630      	ADIW R30,0
000404 940e 058c 	CALL SUBOPT_0x14
000406 01f2      	MOVW R30,R4
000407 9630      	ADIW R30,0
000408 c030      	RJMP _0x76
                 ; 0000 01C0        else if(adc_min==13)                   motor(-255,128,255,-128);///13
                 _0x6A:
000409 940e 058f 	CALL SUBOPT_0x15
00040b 971d      	SBIW R26,13
00040c f479      	BRNE _0x6C
00040d e0e1      	LDI  R30,LOW(65281)
00040e efff      	LDI  R31,HIGH(65281)
00040f 93fa      	ST   -Y,R31
000410 93ea      	ST   -Y,R30
000411 e8e0      	LDI  R30,LOW(128)
000412 e0f0      	LDI  R31,HIGH(128)
000413 93fa      	ST   -Y,R31
000414 93ea      	ST   -Y,R30
000415 efef      	LDI  R30,LOW(255)
000416 e0f0      	LDI  R31,HIGH(255)
000417 93fa      	ST   -Y,R31
000418 93ea      	ST   -Y,R30
000419 e8e0      	LDI  R30,LOW(65408)
00041a efff      	LDI  R31,HIGH(65408)
00041b c01d      	RJMP _0x76
                 ; 0000 01C1        else if(adc_min==14)                   motor(-255+cmp,255+cmp,255+cmp,-255+cmp);///12
                 _0x6C:
00041c 940e 058f 	CALL SUBOPT_0x15
00041e 971e      	SBIW R26,14
00041f f441      	BRNE _0x6E
000420 940e 0586 	CALL SUBOPT_0x13
000422 940e 057a 	CALL SUBOPT_0x11
000424 01f2      	MOVW R30,R4
000425 50e1      	SUBI R30,LOW(-255)
000426 4fff      	SBCI R31,HIGH(-255)
000427 c00c      	RJMP _0x75
                 ; 0000 01C2        else if(adc_min==15)                   motor(-128+cmp,255+cmp,128+cmp,-255+cmp);///13
                 _0x6E:
000428 940e 058f 	CALL SUBOPT_0x15
00042a 971f      	SBIW R26,15
00042b f489      	BRNE _0x70
00042c 01f2      	MOVW R30,R4
00042d 58e0      	SUBI R30,LOW(-65408)
00042e 40f0      	SBCI R31,HIGH(-65408)
00042f 940e 058c 	CALL SUBOPT_0x14
000431 01f2      	MOVW R30,R4
000432 58e0      	SUBI R30,LOW(-128)
000433 4fff      	SBCI R31,HIGH(-128)
                 _0x75:
000434 93fa      	ST   -Y,R31
000435 93ea      	ST   -Y,R30
000436 01f2      	MOVW R30,R4
000437 5fef      	SUBI R30,LOW(-65281)
000438 40f0      	SBCI R31,HIGH(-65281)
                 _0x76:
000439 93fa      	ST   -Y,R31
00043a 93ea      	ST   -Y,R30
00043b 940e 019c 	CALL _motor
                 ; 0000 01C3        #asm ("wdr");
                 _0x70:
                 _0x51:
00043d 95a8      	wdr
                 ; 0000 01C4 
                 ; 0000 01C5               }
                 ; 0000 01C6 
                 ; 0000 01C7 
                 ; 0000 01C8 //
                 ; 0000 01C9 //      else
                 ; 0000 01CA //        {
                 ; 0000 01CB //        if(B<150)                             motor(-255+cmp-e,-255+cmp+e,255+cmp+e,255+cmp-e);// 8
                 ; 0000 01CC //        else if(B>250)                        motor(255+cmp-e,255+cmp+e,-255+cmp+e,-255+cmp-e);//0
                 ; 0000 01CD ////      else if(L>320)                        motor(255+cmp,-255+cmp,-255+cmp,255+cmp);///4
                 ; 0000 01CE ////      else if(R>300)                        motor(-255+cmp,255+cmp,255+cmp,-255+cmp);///12
                 ; 0000 01CF //        else                                  motor(0+cmp,0+cmp,0+cmp,0+cmp);
                 ; 0000 01D0 //
                 ; 0000 01D1         }
                 _0x4B:
                 _0x4A:
                 ; 0000 01D2 
                 ; 0000 01D3 
                 ; 0000 01D4       }
00043e ce5f      	RJMP _0x37
                 ; 0000 01D5 
                 ; 0000 01D6       };
                 _0x71:
00043f cfff      	RJMP _0x71
                 ;
                 ;//       else if(adc_min==1)                          motor(255,128,-255,-128);
                 ;//       else if(adc_min==2)                          motor(255,0,-255,0);
                 ;//       else if(adc_min==3)                          motor(255,-128,-255,128);
                 ;//       else if(adc_min==4)                          motor(255,-255,-255,255);
                 ;//       else if(adc_min==5)                         motor(255,-255,-255,255);
                 ;//       else if(adc_min==6)                          motor(0,-255,0,255);
                 ;//       else if(adc_min==7)                          motor(-128,-255,128,255);
                 ;//
                 ;//       else if(adc_min==8)                          motor(-255,-255,255,255);
                 ;//
                 ;//       else if(adc_min==9)                          motor(-255,-128,255,128);
                 ;//       else if(adc_min==10)                          motor(-255,0,255,0);
                 ;//       else if(adc_min==11)                          motor(-255,128,255,-128);
                 ;//       else if(adc_min==12)                          motor(-255,255,255,-255);
                 ;//       else if(adc_min==13)                          motor(-128,255,128,-255);
                 ;//       else if(adc_min==14)                          motor(0,255,0,-255);
                 ;//       else if(adc_min==15)                          motor(128,255,-128,-255);
                 ;
                 ;
                     .equ __lcd_direction=__lcd_port-1
                     .equ __lcd_pin=__lcd_port-2
                     .equ __lcd_rs=0
                     .equ __lcd_rd=1
                     .equ __lcd_enable=2
                     .equ __lcd_busy_flag=7
                 
                 	.DSEG
                 
                 	.CSEG
                 __lcd_delay_G100:
000440 e0ff          ldi   r31,15
                 __lcd_delay0:
000441 95fa          dec   r31
000442 f7f1          brne  __lcd_delay0
000443 9508      	RET
                 __lcd_ready:
000444 b3a4          in    r26,__lcd_direction
000445 70af          andi  r26,0xf                 ;set as input
000446 bba4          out   __lcd_direction,r26
000447 9aa9          sbi   __lcd_port,__lcd_rd     ;RD=1
000448 98a8          cbi   __lcd_port,__lcd_rs     ;RS=0
                 __lcd_busy:
000449 dff6      	RCALL __lcd_delay_G100
00044a 9aaa          sbi   __lcd_port,__lcd_enable ;EN=1
00044b dff4      	RCALL __lcd_delay_G100
00044c b3a3          in    r26,__lcd_pin
00044d 98aa          cbi   __lcd_port,__lcd_enable ;EN=0
00044e dff1      	RCALL __lcd_delay_G100
00044f 9aaa          sbi   __lcd_port,__lcd_enable ;EN=1
000450 dfef      	RCALL __lcd_delay_G100
000451 98aa          cbi   __lcd_port,__lcd_enable ;EN=0
000452 fda7          sbrc  r26,__lcd_busy_flag
000453 cff5          rjmp  __lcd_busy
000454 9508      	RET
                 __lcd_write_nibble_G100:
000455 7fa0          andi  r26,0xf0
000456 2bab          or    r26,r27
000457 bba5          out   __lcd_port,r26          ;write
000458 9aaa          sbi   __lcd_port,__lcd_enable ;EN=1
000459 940e 0440 	CALL __lcd_delay_G100
00045b 98aa          cbi   __lcd_port,__lcd_enable ;EN=0
00045c 940e 0440 	CALL __lcd_delay_G100
00045e 9508      	RET
                 __lcd_write_data:
00045f 98a9          cbi  __lcd_port,__lcd_rd 	  ;RD=0
000460 b3a4          in    r26,__lcd_direction
000461 6fa7          ori   r26,0xf0 | (1<<__lcd_rs) | (1<<__lcd_rd) | (1<<__lcd_enable) ;set as output
000462 bba4          out   __lcd_direction,r26
000463 b3b5          in    r27,__lcd_port
000464 70bf          andi  r27,0xf
000465 81a8          ld    r26,y
000466 dfee      	RCALL __lcd_write_nibble_G100
000467 81a8          ld    r26,y
000468 95a2          swap  r26
000469 dfeb      	RCALL __lcd_write_nibble_G100
00046a 9aa9          sbi   __lcd_port,__lcd_rd     ;RD=1
00046b 940c 050f 	JMP  _0x2020001
                 __lcd_read_nibble_G100:
00046d 9aaa          sbi   __lcd_port,__lcd_enable ;EN=1
00046e 940e 0440 	CALL __lcd_delay_G100
000470 b3e3          in    r30,__lcd_pin           ;read
000471 98aa          cbi   __lcd_port,__lcd_enable ;EN=0
000472 940e 0440 	CALL __lcd_delay_G100
000474 7fe0          andi  r30,0xf0
000475 9508      	RET
                 _lcd_read_byte0_G100:
000476 940e 0440 	CALL __lcd_delay_G100
000478 dff4      	RCALL __lcd_read_nibble_G100
000479 2fae          mov   r26,r30
00047a dff2      	RCALL __lcd_read_nibble_G100
00047b 98a9          cbi   __lcd_port,__lcd_rd     ;RD=0
00047c 95e2          swap  r30
00047d 2bea          or    r30,r26
00047e 9508      	RET
                 _lcd_gotoxy:
00047f 940e 0444 	CALL __lcd_ready
000481 81e8      	LD   R30,Y
000482 e0f0      	LDI  R31,0
000483 57e2      	SUBI R30,LOW(-__base_y_G100)
000484 4ffe      	SBCI R31,HIGH(-__base_y_G100)
000485 81e0      	LD   R30,Z
000486 81a9      	LDD  R26,Y+1
000487 0fea      	ADD  R30,R26
000488 93ea      	ST   -Y,R30
000489 940e 045f 	CALL __lcd_write_data
00048b 81e9      	LDD  R30,Y+1
00048c 93e0 0192 	STS  __lcd_x,R30
00048e 81e8      	LD   R30,Y
00048f 93e0 0193 	STS  __lcd_y,R30
                 _0x2020002:
000491 9622      	ADIW R28,2
000492 9508      	RET
                 _lcd_clear:
000493 940e 0444 	CALL __lcd_ready
000495 e0e2      	LDI  R30,LOW(2)
000496 93ea      	ST   -Y,R30
000497 940e 045f 	CALL __lcd_write_data
000499 940e 0444 	CALL __lcd_ready
00049b e0ec      	LDI  R30,LOW(12)
00049c 93ea      	ST   -Y,R30
00049d 940e 045f 	CALL __lcd_write_data
00049f 940e 0444 	CALL __lcd_ready
0004a1 e0e1      	LDI  R30,LOW(1)
0004a2 93ea      	ST   -Y,R30
0004a3 940e 045f 	CALL __lcd_write_data
0004a5 e0e0      	LDI  R30,LOW(0)
0004a6 93e0 0193 	STS  __lcd_y,R30
0004a8 93e0 0192 	STS  __lcd_x,R30
0004aa 9508      	RET
                 _lcd_putchar:
0004ab 93ef          push r30
0004ac 93ff          push r31
0004ad 81a8          ld   r26,y
0004ae 9468          set
0004af 30aa          cpi  r26,10
0004b0 f039          breq __lcd_putchar1
0004b1 94e8          clt
0004b2 91e0 0194 	LDS  R30,__lcd_maxx
0004b4 91a0 0192 	LDS  R26,__lcd_x
0004b6 17ae      	CP   R26,R30
0004b7 f060      	BRLO _0x2000004
                 	__lcd_putchar1:
0004b8 91e0 0193 	LDS  R30,__lcd_y
0004ba 5fef      	SUBI R30,-LOW(1)
0004bb 93e0 0193 	STS  __lcd_y,R30
0004bd e0e0      	LDI  R30,LOW(0)
0004be 93ea      	ST   -Y,R30
0004bf 91e0 0193 	LDS  R30,__lcd_y
0004c1 93ea      	ST   -Y,R30
0004c2 dfbc      	RCALL _lcd_gotoxy
0004c3 f056      	brts __lcd_putchar0
                 _0x2000004:
0004c4 91e0 0192 	LDS  R30,__lcd_x
0004c6 5fef      	SUBI R30,-LOW(1)
0004c7 93e0 0192 	STS  __lcd_x,R30
0004c9 df7a          rcall __lcd_ready
0004ca 9aa8          sbi  __lcd_port,__lcd_rs ;RS=1
0004cb 81a8          ld   r26,y
0004cc 93aa          st   -y,r26
0004cd df91          rcall __lcd_write_data
                 __lcd_putchar0:
0004ce 91ff          pop  r31
0004cf 91ef          pop  r30
0004d0 940c 050f 	JMP  _0x2020001
                 __long_delay_G100:
0004d2 27aa          clr   r26
0004d3 27bb          clr   r27
                 __long_delay0:
0004d4 9711          sbiw  r26,1         ;2 cycles
0004d5 f7f1          brne  __long_delay0 ;2 cycles
0004d6 9508      	RET
                 __lcd_init_write_G100:
0004d7 98a9          cbi  __lcd_port,__lcd_rd 	  ;RD=0
0004d8 b3a4          in    r26,__lcd_direction
0004d9 6fa7          ori   r26,0xf7                ;set as output
0004da bba4          out   __lcd_direction,r26
0004db b3b5          in    r27,__lcd_port
0004dc 70bf          andi  r27,0xf
0004dd 81a8          ld    r26,y
0004de 940e 0455 	CALL __lcd_write_nibble_G100
0004e0 9aa9          sbi   __lcd_port,__lcd_rd     ;RD=1
0004e1 c02d      	RJMP _0x2020001
                 _lcd_init:
0004e2 98aa          cbi   __lcd_port,__lcd_enable ;EN=0
0004e3 98a8          cbi   __lcd_port,__lcd_rs     ;RS=0
0004e4 81e8      	LD   R30,Y
0004e5 93e0 0194 	STS  __lcd_maxx,R30
0004e7 58e0      	SUBI R30,-LOW(128)
                +
0004e8 93e0 0190+STS __base_y_G100 + ( 2 ) , R30
                 	__PUTB1MN __base_y_G100,2
0004ea 81e8      	LD   R30,Y
0004eb 54e0      	SUBI R30,-LOW(192)
                +
0004ec 93e0 0191+STS __base_y_G100 + ( 3 ) , R30
                 	__PUTB1MN __base_y_G100,3
0004ee d0c4      	RCALL SUBOPT_0x1C
0004ef d0c3      	RCALL SUBOPT_0x1C
0004f0 d0c2      	RCALL SUBOPT_0x1C
0004f1 dfe0      	RCALL __long_delay_G100
0004f2 e2e0      	LDI  R30,LOW(32)
0004f3 93ea      	ST   -Y,R30
0004f4 dfe2      	RCALL __lcd_init_write_G100
0004f5 dfdc      	RCALL __long_delay_G100
0004f6 e2e8      	LDI  R30,LOW(40)
0004f7 d0c0      	RCALL SUBOPT_0x1D
0004f8 e0e4      	LDI  R30,LOW(4)
0004f9 d0be      	RCALL SUBOPT_0x1D
0004fa e8e5      	LDI  R30,LOW(133)
0004fb d0bc      	RCALL SUBOPT_0x1D
0004fc b3a4          in    r26,__lcd_direction
0004fd 70af          andi  r26,0xf                 ;set as input
0004fe bba4          out   __lcd_direction,r26
0004ff 9aa9          sbi   __lcd_port,__lcd_rd     ;RD=1
000500 940e 0476 	CALL _lcd_read_byte0_G100
000502 30e5      	CPI  R30,LOW(0x5)
000503 f011      	BREQ _0x200000B
000504 e0e0      	LDI  R30,LOW(0)
000505 c009      	RJMP _0x2020001
                 _0x200000B:
000506 940e 0444 	CALL __lcd_ready
000508 e0e6      	LDI  R30,LOW(6)
000509 93ea      	ST   -Y,R30
00050a 940e 045f 	CALL __lcd_write_data
00050c 940e 0493 	CALL _lcd_clear
00050e e0e1      	LDI  R30,LOW(1)
                 _0x2020001:
00050f 9621      	ADIW R28,1
000510 9508      	RET
                 
                 	.ESEG
                 _c:
000000           	.BYTE 0x2
                 
                 	.DSEG
                 _kr:
000160           	.BYTE 0x2
                 _kl:
000162           	.BYTE 0x2
                 _kb:
000164           	.BYTE 0x2
                 _kf:
000166           	.BYTE 0x2
                 _f:
000168           	.BYTE 0x2
                 _adc:
00016a           	.BYTE 0x20
                 _adc_min:
00018a           	.BYTE 0x2
                 _i:
00018c           	.BYTE 0x2
                 __base_y_G100:
00018e           	.BYTE 0x4
                 __lcd_x:
000192           	.BYTE 0x1
                 __lcd_y:
000193           	.BYTE 0x1
                 __lcd_maxx:
000194           	.BYTE 0x1
                 
                 	.CSEG
                 ;OPTIMIZER ADDED SUBROUTINE, CALLED 5 TIMES, CODE SIZE REDUCTION:5 WORDS
                 SUBOPT_0x0:
000511 91a0 018c 	LDS  R26,_i
000513 91b0 018d 	LDS  R27,_i+1
000515 9508      	RET
                 
                 ;OPTIMIZER ADDED SUBROUTINE, CALLED 4 TIMES, CODE SIZE REDUCTION:6 WORDS
                 SUBOPT_0x1:
000516 e0e2      	LDI  R30,LOW(2)
000517 e0f0      	LDI  R31,HIGH(2)
000518 940e 0644 	CALL __MODW21
00051a 30e0      	CPI  R30,0
00051b 9508      	RET
                 
                 ;OPTIMIZER ADDED SUBROUTINE, CALLED 3 TIMES, CODE SIZE REDUCTION:3 WORDS
                 SUBOPT_0x2:
00051c 940e 063f 	CALL __DIVW21
00051e 01df      	MOVW R26,R30
00051f cff6      	RJMP SUBOPT_0x1
                 
                 ;OPTIMIZER ADDED SUBROUTINE, CALLED 2 TIMES, CODE SIZE REDUCTION:3 WORDS
                 SUBOPT_0x3:
000520 91e0 018c 	LDS  R30,_i
000522 91f0 018d 	LDS  R31,_i+1
000524 e6aa      	LDI  R26,LOW(_adc)
000525 e0b1      	LDI  R27,HIGH(_adc)
000526 0fee      	LSL  R30
000527 1fff      	ROL  R31
000528 9508      	RET
                 
                 ;OPTIMIZER ADDED SUBROUTINE, CALLED 7 TIMES, CODE SIZE REDUCTION:45 WORDS
                 SUBOPT_0x4:
000529 91e0 018a 	LDS  R30,_adc_min
00052b 91f0 018b 	LDS  R31,_adc_min+1
00052d e6aa      	LDI  R26,LOW(_adc)
00052e e0b1      	LDI  R27,HIGH(_adc)
00052f 0fee      	LSL  R30
000530 1fff      	ROL  R31
000531 0fae      	ADD  R26,R30
000532 1fbf      	ADC  R27,R31
000533 9508      	RET
                 
                 ;OPTIMIZER ADDED SUBROUTINE, CALLED 5 TIMES, CODE SIZE REDUCTION:9 WORDS
                 SUBOPT_0x5:
000534 93ea      	ST   -Y,R30
000535 e0e0      	LDI  R30,LOW(0)
000536 93ea      	ST   -Y,R30
000537 940c 047f 	JMP  _lcd_gotoxy
                 
                 ;OPTIMIZER ADDED SUBROUTINE, CALLED 2 TIMES, CODE SIZE REDUCTION:1 WORDS
                 SUBOPT_0x6:
000539 91a0 018a 	LDS  R26,_adc_min
00053b 91b0 018b 	LDS  R27,_adc_min+1
00053d e0ea      	LDI  R30,LOW(10)
00053e e0f0      	LDI  R31,HIGH(10)
00053f 9508      	RET
                 
                 ;OPTIMIZER ADDED SUBROUTINE, CALLED 20 TIMES, CODE SIZE REDUCTION:168 WORDS
                 SUBOPT_0x7:
000540 940e 063f 	CALL __DIVW21
000542 01df      	MOVW R26,R30
000543 e0ea      	LDI  R30,LOW(10)
000544 e0f0      	LDI  R31,HIGH(10)
000545 940e 0644 	CALL __MODW21
000547 5de0      	SUBI R30,-LOW(48)
000548 93ea      	ST   -Y,R30
000549 940c 04ab 	JMP  _lcd_putchar
                 
                 ;OPTIMIZER ADDED SUBROUTINE, CALLED 4 TIMES, CODE SIZE REDUCTION:9 WORDS
                 SUBOPT_0x8:
00054b 940e 0644 	CALL __MODW21
00054d 5de0      	SUBI R30,-LOW(48)
00054e 93ea      	ST   -Y,R30
00054f 940c 04ab 	JMP  _lcd_putchar
                 
                 ;OPTIMIZER ADDED SUBROUTINE, CALLED 8 TIMES, CODE SIZE REDUCTION:11 WORDS
                 SUBOPT_0x9:
000551 e6e4      	LDI  R30,LOW(100)
000552 e0f0      	LDI  R31,HIGH(100)
000553 cfec      	RJMP SUBOPT_0x7
                 
                 ;OPTIMIZER ADDED SUBROUTINE, CALLED 10 TIMES, CODE SIZE REDUCTION:15 WORDS
                 SUBOPT_0xA:
000554 e0ea      	LDI  R30,LOW(10)
000555 e0f0      	LDI  R31,HIGH(10)
000556 cfe9      	RJMP SUBOPT_0x7
                 
                 ;OPTIMIZER ADDED SUBROUTINE, CALLED 3 TIMES, CODE SIZE REDUCTION:1 WORDS
                 SUBOPT_0xB:
000557 e0ea      	LDI  R30,LOW(10)
000558 e0f0      	LDI  R31,HIGH(10)
000559 cff1      	RJMP SUBOPT_0x8
                 
                 ;OPTIMIZER ADDED SUBROUTINE, CALLED 5 TIMES, CODE SIZE REDUCTION:9 WORDS
                 SUBOPT_0xC:
00055a 93ea      	ST   -Y,R30
00055b e0e1      	LDI  R30,LOW(1)
00055c 93ea      	ST   -Y,R30
00055d 940c 047f 	JMP  _lcd_gotoxy
                 
                 ;OPTIMIZER ADDED SUBROUTINE, CALLED 3 TIMES, CODE SIZE REDUCTION:1 WORDS
                 SUBOPT_0xD:
00055f 91a0 0160 	LDS  R26,_kr
000561 91b0 0161 	LDS  R27,_kr+1
000563 9508      	RET
                 
                 ;OPTIMIZER ADDED SUBROUTINE, CALLED 2 TIMES, CODE SIZE REDUCTION:2 WORDS
                 SUBOPT_0xE:
000564 19ec      	SUB  R30,R12
000565 09fd      	SBC  R31,R13
000566 0de4      	ADD  R30,R4
000567 1df5      	ADC  R31,R5
000568 93fa      	ST   -Y,R31
000569 93ea      	ST   -Y,R30
00056a 01f6      	MOVW R30,R12
00056b 9508      	RET
                 
                 ;OPTIMIZER ADDED SUBROUTINE, CALLED 2 TIMES, CODE SIZE REDUCTION:1 WORDS
                 SUBOPT_0xF:
00056c 5fef      	SUBI R30,LOW(-65281)
00056d 40f0      	SBCI R31,HIGH(-65281)
00056e 0de4      	ADD  R30,R4
00056f 1df5      	ADC  R31,R5
000570 93fa      	ST   -Y,R31
000571 93ea      	ST   -Y,R30
000572 9508      	RET
                 
                 ;OPTIMIZER ADDED SUBROUTINE, CALLED 2 TIMES, CODE SIZE REDUCTION:1 WORDS
                 SUBOPT_0x10:
000573 50e1      	SUBI R30,LOW(-255)
000574 4fff      	SBCI R31,HIGH(-255)
000575 0de4      	ADD  R30,R4
000576 1df5      	ADC  R31,R5
000577 93fa      	ST   -Y,R31
000578 93ea      	ST   -Y,R30
000579 9508      	RET
                 
                 ;OPTIMIZER ADDED SUBROUTINE, CALLED 10 TIMES, CODE SIZE REDUCTION:24 WORDS
                 SUBOPT_0x11:
00057a 01f2      	MOVW R30,R4
00057b 50e1      	SUBI R30,LOW(-255)
00057c 4fff      	SBCI R31,HIGH(-255)
00057d 93fa      	ST   -Y,R31
00057e 93ea      	ST   -Y,R30
00057f 9508      	RET
                 
                 ;OPTIMIZER ADDED SUBROUTINE, CALLED 11 TIMES, CODE SIZE REDUCTION:27 WORDS
                 SUBOPT_0x12:
000580 93fa      	ST   -Y,R31
000581 93ea      	ST   -Y,R30
000582 01f2      	MOVW R30,R4
000583 5fef      	SUBI R30,LOW(-65281)
000584 40f0      	SBCI R31,HIGH(-65281)
000585 9508      	RET
                 
                 ;OPTIMIZER ADDED SUBROUTINE, CALLED 6 TIMES, CODE SIZE REDUCTION:12 WORDS
                 SUBOPT_0x13:
000586 01f2      	MOVW R30,R4
000587 5fef      	SUBI R30,LOW(-65281)
000588 40f0      	SBCI R31,HIGH(-65281)
000589 93fa      	ST   -Y,R31
00058a 93ea      	ST   -Y,R30
00058b 9508      	RET
                 
                 ;OPTIMIZER ADDED SUBROUTINE, CALLED 6 TIMES, CODE SIZE REDUCTION:7 WORDS
                 SUBOPT_0x14:
00058c 93fa      	ST   -Y,R31
00058d 93ea      	ST   -Y,R30
00058e cfeb      	RJMP SUBOPT_0x11
                 
                 ;OPTIMIZER ADDED SUBROUTINE, CALLED 15 TIMES, CODE SIZE REDUCTION:25 WORDS
                 SUBOPT_0x15:
00058f 91a0 018a 	LDS  R26,_adc_min
000591 91b0 018b 	LDS  R27,_adc_min+1
000593 9508      	RET
                 
                 ;OPTIMIZER ADDED SUBROUTINE, CALLED 3 TIMES, CODE SIZE REDUCTION:3 WORDS
                 SUBOPT_0x16:
000594 01f2      	MOVW R30,R4
000595 58e0      	SUBI R30,LOW(-128)
000596 4fff      	SBCI R31,HIGH(-128)
000597 cfe8      	RJMP SUBOPT_0x12
                 
                 ;OPTIMIZER ADDED SUBROUTINE, CALLED 3 TIMES, CODE SIZE REDUCTION:3 WORDS
                 SUBOPT_0x17:
000598 93fa      	ST   -Y,R31
000599 93ea      	ST   -Y,R30
00059a 01f2      	MOVW R30,R4
00059b 58e0      	SUBI R30,LOW(-65408)
00059c 40f0      	SBCI R31,HIGH(-65408)
00059d 9508      	RET
                 
                 ;OPTIMIZER ADDED SUBROUTINE, CALLED 7 TIMES, CODE SIZE REDUCTION:15 WORDS
                 SUBOPT_0x18:
00059e 93fa      	ST   -Y,R31
00059f 93ea      	ST   -Y,R30
0005a0 01f2      	MOVW R30,R4
0005a1 50e1      	SUBI R30,LOW(-255)
0005a2 4fff      	SBCI R31,HIGH(-255)
0005a3 9508      	RET
                 
                 ;OPTIMIZER ADDED SUBROUTINE, CALLED 2 TIMES, CODE SIZE REDUCTION:1 WORDS
                 SUBOPT_0x19:
0005a4 93fa      	ST   -Y,R31
0005a5 93ea      	ST   -Y,R30
0005a6 01f2      	MOVW R30,R4
0005a7 9630      	ADIW R30,0
0005a8 cff5      	RJMP SUBOPT_0x18
                 
                 ;OPTIMIZER ADDED SUBROUTINE, CALLED 3 TIMES, CODE SIZE REDUCTION:3 WORDS
                 SUBOPT_0x1A:
0005a9 01f2      	MOVW R30,R4
0005aa 58e0      	SUBI R30,LOW(-65408)
0005ab 40f0      	SBCI R31,HIGH(-65408)
0005ac cfd3      	RJMP SUBOPT_0x12
                 
                 ;OPTIMIZER ADDED SUBROUTINE, CALLED 3 TIMES, CODE SIZE REDUCTION:7 WORDS
                 SUBOPT_0x1B:
0005ad 93fa      	ST   -Y,R31
0005ae 93ea      	ST   -Y,R30
0005af 01f2      	MOVW R30,R4
0005b0 58e0      	SUBI R30,LOW(-128)
0005b1 4fff      	SBCI R31,HIGH(-128)
0005b2 cfeb      	RJMP SUBOPT_0x18
                 
                 ;OPTIMIZER ADDED SUBROUTINE, CALLED 3 TIMES, CODE SIZE REDUCTION:5 WORDS
                 SUBOPT_0x1C:
0005b3 940e 04d2 	CALL __long_delay_G100
0005b5 e3e0      	LDI  R30,LOW(48)
0005b6 93ea      	ST   -Y,R30
0005b7 cf1f      	RJMP __lcd_init_write_G100
                 
                 ;OPTIMIZER ADDED SUBROUTINE, CALLED 3 TIMES, CODE SIZE REDUCTION:3 WORDS
                 SUBOPT_0x1D:
0005b8 93ea      	ST   -Y,R30
0005b9 940e 045f 	CALL __lcd_write_data
0005bb 940c 04d2 	JMP  __long_delay_G100
                 
                 
                 	.CSEG
                 	.equ __i2c_dir=__i2c_port-1
                 	.equ __i2c_pin=__i2c_port-2
                 _i2c_init:
0005bd 98c1      	cbi  __i2c_port,__scl_bit
0005be 98c0      	cbi  __i2c_port,__sda_bit
0005bf 9ab9      	sbi  __i2c_dir,__scl_bit
0005c0 98b8      	cbi  __i2c_dir,__sda_bit
0005c1 c015      	rjmp __i2c_delay2
                 _i2c_start:
0005c2 98b8      	cbi  __i2c_dir,__sda_bit
0005c3 98b9      	cbi  __i2c_dir,__scl_bit
0005c4 27ee      	clr  r30
0005c5 0000      	nop
0005c6 9bb0      	sbis __i2c_pin,__sda_bit
0005c7 9508      	ret
0005c8 9bb1      	sbis __i2c_pin,__scl_bit
0005c9 9508      	ret
0005ca d004      	rcall __i2c_delay1
0005cb 9ab8      	sbi  __i2c_dir,__sda_bit
0005cc d002      	rcall __i2c_delay1
0005cd 9ab9      	sbi  __i2c_dir,__scl_bit
0005ce e0e1      	ldi  r30,1
                 __i2c_delay1:
0005cf e062      	ldi  r22,2
0005d0 c007      	rjmp __i2c_delay2l
                 _i2c_stop:
0005d1 9ab8      	sbi  __i2c_dir,__sda_bit
0005d2 9ab9      	sbi  __i2c_dir,__scl_bit
0005d3 d003      	rcall __i2c_delay2
0005d4 98b9      	cbi  __i2c_dir,__scl_bit
0005d5 dff9      	rcall __i2c_delay1
0005d6 98b8      	cbi  __i2c_dir,__sda_bit
                 __i2c_delay2:
0005d7 e063      	ldi  r22,3
                 __i2c_delay2l:
0005d8 956a      	dec  r22
0005d9 f7f1      	brne __i2c_delay2l
0005da 9508      	ret
                 _i2c_read:
0005db e078      	ldi  r23,8
                 __i2c_read0:
0005dc 98b9      	cbi  __i2c_dir,__scl_bit
0005dd dff1      	rcall __i2c_delay1
                 __i2c_read3:
0005de 9bb1      	sbis __i2c_pin,__scl_bit
0005df cffe      	rjmp __i2c_read3
0005e0 dfee      	rcall __i2c_delay1
0005e1 9488      	clc
0005e2 99b0      	sbic __i2c_pin,__sda_bit
0005e3 9408      	sec
0005e4 9ab9      	sbi  __i2c_dir,__scl_bit
0005e5 dff1      	rcall __i2c_delay2
0005e6 1fee      	rol  r30
0005e7 957a      	dec  r23
0005e8 f799      	brne __i2c_read0
0005e9 9179      	ld   r23,y+
0005ea 2377      	tst  r23
0005eb f411      	brne __i2c_read1
0005ec 98b8      	cbi  __i2c_dir,__sda_bit
0005ed c001      	rjmp __i2c_read2
                 __i2c_read1:
0005ee 9ab8      	sbi  __i2c_dir,__sda_bit
                 __i2c_read2:
0005ef dfdf      	rcall __i2c_delay1
0005f0 98b9      	cbi  __i2c_dir,__scl_bit
0005f1 dfe5      	rcall __i2c_delay2
0005f2 9ab9      	sbi  __i2c_dir,__scl_bit
0005f3 dfdb      	rcall __i2c_delay1
0005f4 98b8      	cbi  __i2c_dir,__sda_bit
0005f5 cfd9      	rjmp __i2c_delay1
                 
                 _i2c_write:
0005f6 91e9      	ld   r30,y+
0005f7 e078      	ldi  r23,8
                 __i2c_write0:
0005f8 0fee      	lsl  r30
0005f9 f410      	brcc __i2c_write1
0005fa 98b8      	cbi  __i2c_dir,__sda_bit
0005fb c001      	rjmp __i2c_write2
                 __i2c_write1:
0005fc 9ab8      	sbi  __i2c_dir,__sda_bit
                 __i2c_write2:
0005fd dfd9      	rcall __i2c_delay2
0005fe 98b9      	cbi  __i2c_dir,__scl_bit
0005ff dfcf      	rcall __i2c_delay1
                 __i2c_write3:
000600 9bb1      	sbis __i2c_pin,__scl_bit
000601 cffe      	rjmp __i2c_write3
000602 dfcc      	rcall __i2c_delay1
000603 9ab9      	sbi  __i2c_dir,__scl_bit
000604 957a      	dec  r23
000605 f791      	brne __i2c_write0
000606 98b8      	cbi  __i2c_dir,__sda_bit
000607 dfc7      	rcall __i2c_delay1
000608 98b9      	cbi  __i2c_dir,__scl_bit
000609 dfcd      	rcall __i2c_delay2
00060a e0e1      	ldi  r30,1
00060b 99b0      	sbic __i2c_pin,__sda_bit
00060c 27ee      	clr  r30
00060d 9ab9      	sbi  __i2c_dir,__scl_bit
00060e 9508      	ret
                 
                 _delay_ms:
00060f 91e9      	ld   r30,y+
000610 91f9      	ld   r31,y+
000611 9630      	adiw r30,0
000612 f039      	breq __delay_ms1
                 __delay_ms0:
                +
000613 ef8a     +LDI R24 , LOW ( 0xFA )
000614 e090     +LDI R25 , HIGH ( 0xFA )
                +__DELAY_USW_LOOP :
000615 9701     +SBIW R24 , 1
000616 f7f1     +BRNE __DELAY_USW_LOOP
                 	__DELAY_USW 0xFA
000617 95a8      	wdr
000618 9731      	sbiw r30,1
000619 f7c9      	brne __delay_ms0
                 __delay_ms1:
00061a 9508      	ret
                 
                 __ANEGW1:
00061b 95f1      	NEG  R31
00061c 95e1      	NEG  R30
00061d 40f0      	SBCI R31,0
00061e 9508      	RET
                 
                 __MULW12U:
00061f 9ffa      	MUL  R31,R26
000620 2df0      	MOV  R31,R0
000621 9feb      	MUL  R30,R27
000622 0df0      	ADD  R31,R0
000623 9fea      	MUL  R30,R26
000624 2de0      	MOV  R30,R0
000625 0df1      	ADD  R31,R1
000626 9508      	RET
                 
                 __MULW12:
000627 d02a      	RCALL __CHKSIGNW
000628 dff6      	RCALL __MULW12U
000629 f40e      	BRTC __MULW121
00062a dff0      	RCALL __ANEGW1
                 __MULW121:
00062b 9508      	RET
                 
                 __DIVW21U:
00062c 2400      	CLR  R0
00062d 2411      	CLR  R1
00062e e190      	LDI  R25,16
                 __DIVW21U1:
00062f 0faa      	LSL  R26
000630 1fbb      	ROL  R27
000631 1c00      	ROL  R0
000632 1c11      	ROL  R1
000633 1a0e      	SUB  R0,R30
000634 0a1f      	SBC  R1,R31
000635 f418      	BRCC __DIVW21U2
000636 0e0e      	ADD  R0,R30
000637 1e1f      	ADC  R1,R31
000638 c001      	RJMP __DIVW21U3
                 __DIVW21U2:
000639 60a1      	SBR  R26,1
                 __DIVW21U3:
00063a 959a      	DEC  R25
00063b f799      	BRNE __DIVW21U1
00063c 01fd      	MOVW R30,R26
00063d 01d0      	MOVW R26,R0
00063e 9508      	RET
                 
                 __DIVW21:
00063f d012      	RCALL __CHKSIGNW
000640 dfeb      	RCALL __DIVW21U
000641 f40e      	BRTC __DIVW211
000642 dfd8      	RCALL __ANEGW1
                 __DIVW211:
000643 9508      	RET
                 
                 __MODW21:
000644 94e8      	CLT
000645 ffb7      	SBRS R27,7
000646 c004      	RJMP __MODW211
000647 95a0      	COM  R26
000648 95b0      	COM  R27
000649 9611      	ADIW R26,1
00064a 9468      	SET
                 __MODW211:
00064b fdf7      	SBRC R31,7
00064c dfce      	RCALL __ANEGW1
00064d dfde      	RCALL __DIVW21U
00064e 01fd      	MOVW R30,R26
00064f f40e      	BRTC __MODW212
000650 dfca      	RCALL __ANEGW1
                 __MODW212:
000651 9508      	RET
                 
                 __CHKSIGNW:
000652 94e8      	CLT
000653 fff7      	SBRS R31,7
000654 c002      	RJMP __CHKSW1
000655 dfc5      	RCALL __ANEGW1
000656 9468      	SET
                 __CHKSW1:
000657 ffb7      	SBRS R27,7
000658 c006      	RJMP __CHKSW2
000659 95a0      	COM  R26
00065a 95b0      	COM  R27
00065b 9611      	ADIW R26,1
00065c f800      	BLD  R0,0
00065d 9403      	INC  R0
00065e fa00      	BST  R0,0
                 __CHKSW2:
00065f 9508      	RET
                 
                 __GETW1P:
000660 91ed      	LD   R30,X+
000661 91fc      	LD   R31,X
000662 9711      	SBIW R26,1
000663 9508      	RET
                 
                 __EEPROMRDW:
000664 9611      	ADIW R26,1
000665 d002      	RCALL __EEPROMRDB
000666 2ffe      	MOV  R31,R30
000667 9711      	SBIW R26,1
                 
                 __EEPROMRDB:
000668 99e1      	SBIC EECR,EEWE
000669 cffe      	RJMP __EEPROMRDB
00066a 93ff      	PUSH R31
00066b b7ff      	IN   R31,SREG
00066c 94f8      	CLI
00066d bbae      	OUT  EEARL,R26
00066e bbbf      	OUT  EEARH,R27
00066f 9ae0      	SBI  EECR,EERE
000670 b3ed      	IN   R30,EEDR
000671 bfff      	OUT  SREG,R31
000672 91ff      	POP  R31
000673 9508      	RET
                 
                 __EEPROMWRW:
000674 d007      	RCALL __EEPROMWRB
000675 9611      	ADIW R26,1
000676 93ef      	PUSH R30
000677 2fef      	MOV  R30,R31
000678 d003      	RCALL __EEPROMWRB
000679 91ef      	POP  R30
00067a 9711      	SBIW R26,1
00067b 9508      	RET
                 
                 __EEPROMWRB:
00067c 9be1      	SBIS EECR,EEWE
00067d c002      	RJMP __EEPROMWRB1
00067e 95a8      	WDR
00067f cffc      	RJMP __EEPROMWRB
                 __EEPROMWRB1:
000680 b79f      	IN   R25,SREG
000681 94f8      	CLI
000682 bbae      	OUT  EEARL,R26
000683 bbbf      	OUT  EEARH,R27
000684 9ae0      	SBI  EECR,EERE
000685 b38d      	IN   R24,EEDR
000686 17e8      	CP   R30,R24
000687 f019      	BREQ __EEPROMWRB0
000688 bbed      	OUT  EEDR,R30
000689 9ae2      	SBI  EECR,EEMWE
00068a 9ae1      	SBI  EECR,EEWE
                 __EEPROMWRB0:
00068b bf9f      	OUT  SREG,R25
00068c 9508      	RET
                 
                 __CPW02:
00068d 2400      	CLR  R0
00068e 160a      	CP   R0,R26
00068f 060b      	CPC  R0,R27
000690 9508      	RET
                 
                 ;END OF CODE MARKER
                 __END_OF_CODE:


RESOURCE USE INFORMATION
------------------------

Notice:
The register and instruction counts are symbol table hit counts,
and hence implicitly used resources are not counted, eg, the
'lpm' instruction without operands implicitly uses r0 and z,
none of which are counted.

x,y,z are separate entities in the symbol table and are
counted separately from r26..r31 here.

.dseg memory usage only counts static data declared with .byte

ATmega16 register use summary:
r0 :  28 r1 :   9 r2 :   0 r3 :   0 r4 :  46 r5 :  11 r6 :   5 r7 :   2 
r8 :   5 r9 :   2 r10:   5 r11:   1 r12:   6 r13:   2 r14:   0 r15:   0 
r16:   0 r17:   4 r18:   0 r19:   0 r20:   0 r21:   0 r22:   5 r23:   6 
r24:  13 r25:   7 r26: 141 r27:  64 r28:   4 r29:   1 r30: 429 r31: 162 
x  :  13 y  : 150 z  :   8 
Registers used: 26 out of 35 (74.3%)

ATmega16 instruction use summary:
.lds  :   0 .lds.l:   0 .sts  :   0 .sts.l:   0 adc   :   8 add   :  11 
adiw  :  16 and   :   0 andi  :   6 asr   :   0 bclr  :   0 bld   :   1 
brbc  :   0 brbs  :   0 brcc  :   2 brcs  :   0 break :   0 breq  :   5 
brge  :  16 brhc  :   0 brhs  :   0 brid  :   0 brie  :   0 brlo  :   1 
brlt  :  15 brmi  :   0 brne  :  34 brpl  :   0 brsh  :   0 brtc  :   3 
brts  :   1 brvc  :   0 brvs  :   0 bset  :   0 bst   :   1 call  : 179 
cbi   :  33 cbr   :   0 clc   :   1 clh   :   0 cli   :   3 cln   :   0 
clr   :  12 cls   :   0 clt   :   3 clv   :   0 clz   :   0 com   :   4 
cp    :  14 cpc   :  23 cpi   :  14 cpse  :   0 dec   :   7 des   :   0 
eor   :   0 fmul  :   0 fmuls :   0 fmulsu:   0 icall :   0 ijmp  :   0 
in    :  14 inc   :   1 jmp   :  33 ld    :  27 ldd   :  42 ldi   : 180 
lds   :  35 lpm   :   7 lsl   :   4 lsr   :   0 mov   :   8 movw  :  63 
mul   :   3 muls  :   0 mulsu :   0 neg   :   2 nop   :   1 or    :   2 
ori   :   3 out   :  67 pop   :   6 push  :   6 rcall :  56 ret   :  43 
reti  :   0 rjmp  :  66 rol   :   6 ror   :   0 sbc   :   6 sbci  :  23 
sbi   :  34 sbic  :   3 sbis  :   7 sbiw  :  27 sbr   :   1 sbrc  :   2 
sbrs  :   3 sec   :   1 seh   :   0 sei   :   0 sen   :   0 ser   :   0 
ses   :   0 set   :   3 sev   :   0 sez   :   0 sleep :   0 spm   :   0 
st    :  81 std   :  14 sts   :  25 sub   :   6 subi  :  30 swap  :   2 
tst   :   1 wdr   :  47 
Instructions used: 67 out of 116 (57.8%)

ATmega16 memory use summary [bytes]:
Segment   Begin    End      Code   Data   Used    Size   Use%
---------------------------------------------------------------
[.cseg] 0x000000 0x000d22   3352     10   3362   16384  20.5%
[.dseg] 0x000060 0x000195      0     53     53    1024   5.2%
[.eseg] 0x000000 0x000002      0      2      2     512   0.4%

Assembly complete, 0 errors, 5 warnings
